
main.out:     format de fichier elf32-avr

SYMBOL TABLE:
00800100 l    d  .data	00000000 .data
00000000 l    d  .text	00000000 .text
00800142 l    d  .bss	00000000 .bss
00000000 l    d  .stab	00000000 .stab
00000000 l    d  .stabstr	00000000 .stabstr
00000000 l    d  .comment	00000000 .comment
00000000 l    d  .note.gnu.avr.deviceinfo	00000000 .note.gnu.avr.deviceinfo
00000000 l    d  .debug_aranges	00000000 .debug_aranges
00000000 l    d  .debug_info	00000000 .debug_info
00000000 l    d  .debug_abbrev	00000000 .debug_abbrev
00000000 l    d  .debug_line	00000000 .debug_line
00000000 l    d  .debug_frame	00000000 .debug_frame
00000000 l    d  .debug_str	00000000 .debug_str
00000000 l    d  .debug_loc	00000000 .debug_loc
00000000 l    d  .debug_ranges	00000000 .debug_ranges
00000000 l    df *ABS*	00000000 main.c
0000003e l       *ABS*	00000000 __SP_H__
0000003d l       *ABS*	00000000 __SP_L__
0000003f l       *ABS*	00000000 __SREG__
00000000 l       *ABS*	00000000 __tmp_reg__
00000001 l       *ABS*	00000000 __zero_reg__
00000000 l    df *ABS*	00000000 USB.c
0000003e l       *ABS*	00000000 __SP_H__
0000003d l       *ABS*	00000000 __SP_L__
0000003f l       *ABS*	00000000 __SREG__
00000000 l       *ABS*	00000000 __tmp_reg__
00000001 l       *ABS*	00000000 __zero_reg__
00000000 l    df *ABS*	00000000 PID.c
0000003e l       *ABS*	00000000 __SP_H__
0000003d l       *ABS*	00000000 __SP_L__
0000003f l       *ABS*	00000000 __SREG__
00000000 l       *ABS*	00000000 __tmp_reg__
00000001 l       *ABS*	00000000 __zero_reg__
00800146 l     O .bss	00000004 integrale.4247
00800142 l     O .bss	00000004 erreur_avant.4248
00000000 l    df *ABS*	00000000 erreur.c
0000003e l       *ABS*	00000000 __SP_H__
0000003d l       *ABS*	00000000 __SP_L__
0000003f l       *ABS*	00000000 __SREG__
00000000 l       *ABS*	00000000 __tmp_reg__
00000001 l       *ABS*	00000000 __zero_reg__
00000000 l    df *ABS*	00000000 libVirtualSerialConfiguration.c
0000003e l       *ABS*	00000000 __SP_H__
0000003d l       *ABS*	00000000 __SP_L__
0000003f l       *ABS*	00000000 __SREG__
00000000 l       *ABS*	00000000 __tmp_reg__
00000001 l       *ABS*	00000000 __zero_reg__
00000000 l    df *ABS*	00000000 USBController_AVR8.c
0000003e l       *ABS*	00000000 __SP_H__
0000003d l       *ABS*	00000000 __SP_L__
0000003f l       *ABS*	00000000 __SREG__
00000000 l       *ABS*	00000000 __tmp_reg__
00000001 l       *ABS*	00000000 __zero_reg__
00000000 l    df *ABS*	00000000 USBInterrupt_AVR8.c
0000003e l       *ABS*	00000000 __SP_H__
0000003d l       *ABS*	00000000 __SP_L__
0000003f l       *ABS*	00000000 __SREG__
00000000 l       *ABS*	00000000 __tmp_reg__
00000001 l       *ABS*	00000000 __zero_reg__
00000000 l    df *ABS*	00000000 DeviceStandardReq.c
0000003e l       *ABS*	00000000 __SP_H__
0000003d l       *ABS*	00000000 __SP_L__
0000003f l       *ABS*	00000000 __SREG__
00000000 l       *ABS*	00000000 __tmp_reg__
00000001 l       *ABS*	00000000 __zero_reg__
00000000 l    df *ABS*	00000000 Events.c
0000003e l       *ABS*	00000000 __SP_H__
0000003d l       *ABS*	00000000 __SP_L__
0000003f l       *ABS*	00000000 __SREG__
00000000 l       *ABS*	00000000 __tmp_reg__
00000001 l       *ABS*	00000000 __zero_reg__
00000000 l    df *ABS*	00000000 USBTask.c
0000003e l       *ABS*	00000000 __SP_H__
0000003d l       *ABS*	00000000 __SP_L__
0000003f l       *ABS*	00000000 __SREG__
00000000 l       *ABS*	00000000 __tmp_reg__
00000001 l       *ABS*	00000000 __zero_reg__
00000000 l    df *ABS*	00000000 CDCClassDevice.c
0000003e l       *ABS*	00000000 __SP_H__
0000003d l       *ABS*	00000000 __SP_L__
0000003f l       *ABS*	00000000 __SREG__
00000000 l       *ABS*	00000000 __tmp_reg__
00000001 l       *ABS*	00000000 __zero_reg__
00000d24 l     F .text	00000022 CDC_Device_putchar
00000e96 l     F .text	00000014 CDC_Device_getchar
00000eaa l     F .text	00000032 CDC_Device_getchar_Blocking
00000000 l    df *ABS*	00000000 Descriptors.c
0000003e l       *ABS*	00000000 __SP_H__
0000003d l       *ABS*	00000000 __SP_L__
0000003f l       *ABS*	00000000 __SREG__
00000000 l       *ABS*	00000000 __tmp_reg__
00000001 l       *ABS*	00000000 __zero_reg__
00000000 l    df *ABS*	00000000 EndpointStream_AVR8.c
0000003e l       *ABS*	00000000 __SP_H__
0000003d l       *ABS*	00000000 __SP_L__
0000003f l       *ABS*	00000000 __SREG__
00000000 l       *ABS*	00000000 __tmp_reg__
00000001 l       *ABS*	00000000 __zero_reg__
00000000 l    df *ABS*	00000000 Endpoint_AVR8.c
0000003e l       *ABS*	00000000 __SP_H__
0000003d l       *ABS*	00000000 __SP_L__
0000003f l       *ABS*	00000000 __SREG__
00000000 l       *ABS*	00000000 __tmp_reg__
00000001 l       *ABS*	00000000 __zero_reg__
00000000 l    df *ABS*	00000000 _exit.o
00002b84 l       .text	00000000 __stop_program
00000000 l    df *ABS*	00000000 _clear_bss.o
00000164 l       .text	00000000 .do_clear_bss_start
00000162 l       .text	00000000 .do_clear_bss_loop
00000000 l    df *ABS*	00000000 fputc.c
0000003e l       *ABS*	00000000 __SP_H__
0000003d l       *ABS*	00000000 __SP_L__
0000003f l       *ABS*	00000000 __SREG__
00000000 l       *ABS*	00000000 __tmp_reg__
00000001 l       *ABS*	00000000 __zero_reg__
00000000 l    df *ABS*	00000000 fputs.c
0000003e l       *ABS*	00000000 __SP_H__
0000003d l       *ABS*	00000000 __SP_L__
0000003f l       *ABS*	00000000 __SREG__
00000000 l       *ABS*	00000000 __tmp_reg__
00000001 l       *ABS*	00000000 __zero_reg__
00000000 l    df *ABS*	00000000 sprintf.c
0000003e l       *ABS*	00000000 __SP_H__
0000003d l       *ABS*	00000000 __SP_L__
0000003f l       *ABS*	00000000 __SREG__
00000000 l       *ABS*	00000000 __tmp_reg__
00000001 l       *ABS*	00000000 __zero_reg__
00000000 l    df *ABS*	00000000 vfprintf.c
0000003e l       *ABS*	00000000 __SP_H__
0000003d l       *ABS*	00000000 __SP_L__
0000003f l       *ABS*	00000000 __SREG__
00000000 l       *ABS*	00000000 __tmp_reg__
00000001 l       *ABS*	00000000 __zero_reg__
00000172  w      .text	00000000 __vector_38
00000172  w      .text	00000000 __vector_22
00001208 g     F .text	00000082 Endpoint_Null_Stream
00000172  w      .text	00000000 __vector_28
00000172  w      .text	00000000 __vector_1
00001cd0 g     F .text	000000f4 Endpoint_Write_Control_EStream_LE
000005ca g     F .text	0000001c EVENT_USB_Device_ConfigurationChanged
000006a8 g     F .text	00000022 USB_Init
00001126 g     F .text	00000060 CALLBACK_USB_GetDescriptor
00000c06 g     F .text	00000050 CDC_Device_ConfigureEndpoints
00800160 g     O .bss	00000001 USB_IsInitialized
00000172  w      .text	00000000 __vector_32
00000a00 g       *ABS*	00000000 __DATA_REGION_LENGTH__
00002b4c g       .text	00000036 .hidden __epilogue_restores__
00000622 g     F .text	00000086 USB_ResetInterface
00000000 g       *ABS*	00000000 __TEXT_REGION_ORIGIN__
00000fb8 g     F .text	0000016e CDC_Device_ProcessControlRequest
000023ce g     F .text	00000022 __fp_round
00000212 g     F .text	00000066 sature_integrale
00000172  w      .text	00000000 __vector_34
000023f0 g     F .text	00000044 __fp_split3
00000fb6  w    F .text	00000002 EVENT_CDC_Device_LineEncodingChanged
00001320 g     F .text	000000a0 Endpoint_Write_Stream_BE
00001f58 g     F .text	00000092 Endpoint_Read_Control_EStream_BE
000000ac g       .text	00000000 __trampolines_start
00002358 g     F .text	00000048 __fp_cmp
00001a3e g     F .text	00000080 Endpoint_Read_Control_Stream_LE
00002b86 g       .text	00000000 _etext
00000ccc g     F .text	00000058 CDC_Device_SendByte
00000910 g     F .text	000002be USB_Device_ProcessControlRequest
00001fea g     F .text	0000006a Endpoint_ConfigureEndpoint_Prv
0000219c g     F .text	0000000e __subsf3
00000172  w      .text	00000000 __vector_24
00000172  w      .text	00000000 __vector_12
00002a24 g     F .text	000000bc __ultoa_invert
000018b2 g     F .text	000000bc Endpoint_Write_Control_Stream_LE
00002054 g     F .text	0000007c Endpoint_ConfigureEndpointTable
0000128a g     F .text	00000096 Endpoint_Write_Stream_LE
000016ce g     F .text	000000a4 Endpoint_Write_EStream_BE
00000278 g     F .text	00000126 PID
00000172 g       .text	00000000 __bad_interrupt
00001dc4 g     F .text	00000100 Endpoint_Write_Control_EStream_BE
000006da g     F .text	0000000a USB_INT_ClearAllInterrupts
00000d46 g     F .text	0000005e CDC_Device_Flush
00002bc8 g       *ABS*	00000000 __data_load_end
00000172  w      .text	00000000 __vector_6
00000bce  w    F .text	00000002 EVENT_USB_Device_Connect
00000172  w      .text	00000000 __vector_31
00002276 g       .text	00000000 __lesf2
00000172  w      .text	00000000 __vector_35
000020f8 g     F .text	0000003e Endpoint_ClearStatusStage
000000ac g       .text	00000000 __trampolines_end
00001ec4 g     F .text	00000094 Endpoint_Read_Control_EStream_LE
00000172  w      .text	00000000 __vector_39
00000172  w      .text	00000000 __vector_3
00001456 g     F .text	000000a0 Endpoint_Read_Stream_BE
00002434 g     F .text	0000000e __fp_zero
00001632 g     F .text	0000009c Endpoint_Write_EStream_LE
00001772 g     F .text	0000009c Endpoint_Read_EStream_LE
00000dd2 g     F .text	0000005a CDC_Device_BytesReceived
00002276 g       .text	00000000 __nesf2
00000172  w      .text	00000000 __vector_23
00002b86 g       *ABS*	00000000 __data_load_start
00000138 g       .text	00000000 __dtors_end
0080016a g       .bss	00000000 __bss_end
00800161 g     O .bss	00000001 USB_DeviceState
00000172  w      .text	00000000 __vector_30
00800100 g     O .data	00000001 first_capture
00000400 g       *ABS*	00000000 __LOCK_REGION_LENGTH__
00001c02 g     F .text	000000ce Endpoint_Write_Control_PStream_BE
00000172  w      .text	00000000 __vector_25
0000039e g     F .text	00000056 sature_commande
00002a0e g     F .text	00000016 strnlen
000020d0 g     F .text	00000028 Endpoint_ClearEndpoints
00000da4 g     F .text	0000002e CDC_Device_USBTask
00000c56 g     F .text	00000042 CDC_Device_SendString
0080015d g     O .bss	00000001 USB_Device_ConfigurationNumber
00000888 g     F .text	00000088 __vector_11
00000bce  w    F .text	00000002 EVENT_USB_Device_WakeUp
00000138  w      .text	00000000 __init
00002af2 g       .text	00000000 eeprom_update_r18
0080014b g     O .bss	00000004 cycle_count
00002442 g       .text	00000000 __gtsf2
00000172  w      .text	00000000 __vector_13
000000ca g     O .text	0000001a ManufacturerString
00002478 g       .text	00000000 __mulsf3_pse
00000172  w      .text	00000000 __vector_17
00001abe g     F .text	00000082 Endpoint_Read_Control_Stream_BE
000023ac g     F .text	00000006 __fp_nan
00000172  w      .text	00000000 __vector_19
00000bce g     F .text	00000002 USB_Event_Stub
00000176 g     F .text	0000009c USB
00000bce  w    F .text	00000002 EVENT_USB_Device_Suspend
00000172  w      .text	00000000 __vector_7
0000196e g     F .text	000000d0 Endpoint_Write_Control_Stream_BE
000023a0 g     F .text	0000000c __fp_inf
000014f6 g     F .text	0000009a Endpoint_Write_PStream_LE
00000f90 g     F .text	00000026 CDC_Device_CreateBlockingStream
0000015a g       .text	00000010 .hidden __do_clear_bss
000029f8 g     F .text	00000016 strnlen_P
00000172  w      .text	00000000 __vector_41
00810000 g       .stab	00000000 __eeprom_end
0000180e g     F .text	000000a4 Endpoint_Read_EStream_BE
00002472 g     F .text	000000d2 __mulsf3x
000022e2 g       .text	00000000 __floatsisf
00000000 g       .text	00000000 __vectors
00002ae0 g     F .text	00000010 eeprom_read_byte
00000bce  w    F .text	00000002 EVENT_USB_Device_StartOfFrame
00000bce  w    F .text	00000002 EVENT_USB_Device_Disconnect
00000172  w      .text	00000000 __vector_27
000003f4 g     F .text	00000018 setup_input_capture
00800142 g       .data	00000000 __data_end
00000c98 g     F .text	00000034 CDC_Device_SendData
000006ca g     F .text	00000010 USB_INT_DisableAllInterrupts
00002276 g       .text	00000000 __eqsf2
0080014a g     O .bss	00000001 measurement_done
00000000  w      .text	00000000 __vector_default
00000172  w      .text	00000000 __vector_5
00002af0 g     F .text	00000024 eeprom_update_byte
00000172  w      .text	00000000 __vector_33
0080015e g     O .bss	00000001 USB_Device_CurrentlySelfPowered
00000400 g       *ABS*	00000000 __SIGNATURE_REGION_LENGTH__
000013c0 g     F .text	00000096 Endpoint_Read_Stream_LE
00000bd0 g     F .text	00000036 USB_USBTask
00000138 g       .text	00000000 __ctors_start
00002136 g     F .text	00000066 Endpoint_WaitUntilReady
00000172  w      .text	00000000 __vector_37
00000144 g       .text	00000016 .hidden __do_copy_data
00002276 g     F .text	0000000a __cmpsf2
000023c0 g     F .text	0000000e __fp_pscB
00002400 g       .text	00000000 __fp_splitA
00800142 g       .bss	00000000 __bss_start
00000496 g     F .text	00000102 main
00002276 g       .text	00000000 __ltsf2
00800101 g     O .data	0000001b VirtualSerial_CDC_Interface
00000172  w      .text	00000000 __vector_4
00800100 g       *ABS*	00000000 __DATA_REGION_ORIGIN__
00800162 g     O .bss	00000008 USB_ControlRequest
00000bce  w    F .text	00000002 EVENT_USB_Device_Reset
00000598 g     F .text	00000032 SetupHardware
0000244c g     F .text	00000008 __mulsf3
00000000  w      *ABS*	00000000 __heap_end
00000fb6  w    F .text	00000002 EVENT_CDC_Device_ControLineStateChanged
00000172  w      .text	00000000 __vector_9
00000172  w      .text	00000000 __vector_2
000021cc g     F .text	000000cc __addsf3x
00000400 g       *ABS*	00000000 __USER_SIGNATURE_REGION_LENGTH__
000025f2 g     F .text	00000044 sprintf
00002442 g     F .text	0000000a __gesf2
00000edc g     F .text	0000008e CDC_Device_SendControlLineStateChange
0080014f g     O .bss	0000000e USBSerialStream
00000172  w      .text	00000000 __vector_21
00000172  w      .text	00000000 __vector_15
00000172  w      .text	00000000 __vector_36
000023b2 g     F .text	0000000e __fp_pscA
00001b40 g     F .text	000000c2 Endpoint_Write_Control_PStream_LE
00002526 g     F .text	00000078 fputc
00000172  w      .text	00000000 __vector_29
000005e6 g     F .text	00000008 EVENT_USB_Device_ControlRequest
00001186 g     F .text	00000082 Endpoint_Discard_Stream
00000138 g       .text	00000000 __dtors_start
00000138 g       .text	00000000 __ctors_end
00000aff  w      *ABS*	00000000 __stack
000000e4 g     O .text	00000004 LanguageString
00001590 g     F .text	000000a2 Endpoint_Write_PStream_BE
00000172  w      .text	00000000 __vector_40
00800142 g       .data	00000000 _edata
0080016a g       .stab	00000000 _end
00000f6a g     F .text	00000026 CDC_Device_CreateStream
00000172  w      .text	00000000 __vector_8
00000172  w      .text	00000000 __vector_26
00000fb6  w    F .text	00000002 EVENT_CDC_Device_BreakSent
00002b82  w      .text	00000000 .hidden exit
000022de g     F .text	0000007a __floatunsisf
0080015f g     O .bss	00000001 USB_Device_RemoteWakeupEnabled
00000126 g     O .text	00000012 DeviceDescriptor
00000e2c g     F .text	0000006a CDC_Device_ReceiveByte
00002280 g     F .text	0000005e __fixunssfsi
000000ac g     O .text	0000001e ProductString
00000400 g       *ABS*	00000000 __EEPROM_REGION_LENGTH__
00002b82 g       .text	00000000 .hidden _exit
00000172  w      .text	00000000 __vector_14
00000fb6 g     F .text	00000002 CDC_Device_Event_Stub
000006e4 g     F .text	000001a4 __vector_10
000005ee g     F .text	00000034 USB_Disable
0000259e g     F .text	00000054 fputs
0000040c g     F .text	00000060 __vector_16
00800100 g       .data	00000000 __data_start
0000046c g     F .text	0000002a measure_cycles
00000172  w      .text	00000000 __vector_18
000000e8 g     O .text	0000003e ConfigurationDescriptor
00000003 g       *ABS*	00000000 __FUSE_REGION_LENGTH__
00008000 g       *ABS*	00000000 __TEXT_REGION_LENGTH__
00000172  w      .text	00000000 __vector_20
0000219e g       .text	00000000 __addsf3
00000172  w      .text	00000000 __vector_42
00002b14 g       .text	00000038 .hidden __prologue_saves__
00002636 g     F .text	000003c2 vfprintf
00002436 g       .text	00000000 __fp_szero



Déassemblage de la section .text :

00000000 <__vectors>:
       0:	0c 94 9c 00 	jmp	0x138	; 0x138 <__ctors_end>
       4:	0c 94 b9 00 	jmp	0x172	; 0x172 <__bad_interrupt>
       8:	0c 94 b9 00 	jmp	0x172	; 0x172 <__bad_interrupt>
       c:	0c 94 b9 00 	jmp	0x172	; 0x172 <__bad_interrupt>
      10:	0c 94 b9 00 	jmp	0x172	; 0x172 <__bad_interrupt>
      14:	0c 94 b9 00 	jmp	0x172	; 0x172 <__bad_interrupt>
      18:	0c 94 b9 00 	jmp	0x172	; 0x172 <__bad_interrupt>
      1c:	0c 94 b9 00 	jmp	0x172	; 0x172 <__bad_interrupt>
      20:	0c 94 b9 00 	jmp	0x172	; 0x172 <__bad_interrupt>
      24:	0c 94 b9 00 	jmp	0x172	; 0x172 <__bad_interrupt>
      28:	0c 94 72 03 	jmp	0x6e4	; 0x6e4 <__vector_10>
      2c:	0c 94 44 04 	jmp	0x888	; 0x888 <__vector_11>
      30:	0c 94 b9 00 	jmp	0x172	; 0x172 <__bad_interrupt>
      34:	0c 94 b9 00 	jmp	0x172	; 0x172 <__bad_interrupt>
      38:	0c 94 b9 00 	jmp	0x172	; 0x172 <__bad_interrupt>
      3c:	0c 94 b9 00 	jmp	0x172	; 0x172 <__bad_interrupt>
      40:	0c 94 06 02 	jmp	0x40c	; 0x40c <__vector_16>
      44:	0c 94 b9 00 	jmp	0x172	; 0x172 <__bad_interrupt>
      48:	0c 94 b9 00 	jmp	0x172	; 0x172 <__bad_interrupt>
      4c:	0c 94 b9 00 	jmp	0x172	; 0x172 <__bad_interrupt>
      50:	0c 94 b9 00 	jmp	0x172	; 0x172 <__bad_interrupt>
      54:	0c 94 b9 00 	jmp	0x172	; 0x172 <__bad_interrupt>
      58:	0c 94 b9 00 	jmp	0x172	; 0x172 <__bad_interrupt>
      5c:	0c 94 b9 00 	jmp	0x172	; 0x172 <__bad_interrupt>
      60:	0c 94 b9 00 	jmp	0x172	; 0x172 <__bad_interrupt>
      64:	0c 94 b9 00 	jmp	0x172	; 0x172 <__bad_interrupt>
      68:	0c 94 b9 00 	jmp	0x172	; 0x172 <__bad_interrupt>
      6c:	0c 94 b9 00 	jmp	0x172	; 0x172 <__bad_interrupt>
      70:	0c 94 b9 00 	jmp	0x172	; 0x172 <__bad_interrupt>
      74:	0c 94 b9 00 	jmp	0x172	; 0x172 <__bad_interrupt>
      78:	0c 94 b9 00 	jmp	0x172	; 0x172 <__bad_interrupt>
      7c:	0c 94 b9 00 	jmp	0x172	; 0x172 <__bad_interrupt>
      80:	0c 94 b9 00 	jmp	0x172	; 0x172 <__bad_interrupt>
      84:	0c 94 b9 00 	jmp	0x172	; 0x172 <__bad_interrupt>
      88:	0c 94 b9 00 	jmp	0x172	; 0x172 <__bad_interrupt>
      8c:	0c 94 b9 00 	jmp	0x172	; 0x172 <__bad_interrupt>
      90:	0c 94 b9 00 	jmp	0x172	; 0x172 <__bad_interrupt>
      94:	0c 94 b9 00 	jmp	0x172	; 0x172 <__bad_interrupt>
      98:	0c 94 b9 00 	jmp	0x172	; 0x172 <__bad_interrupt>
      9c:	0c 94 b9 00 	jmp	0x172	; 0x172 <__bad_interrupt>
      a0:	0c 94 b9 00 	jmp	0x172	; 0x172 <__bad_interrupt>
      a4:	0c 94 b9 00 	jmp	0x172	; 0x172 <__bad_interrupt>
      a8:	0c 94 b9 00 	jmp	0x172	; 0x172 <__bad_interrupt>

000000ac <ProductString>:
      ac:	1c 03 4c 00 55 00 46 00 41 00 20 00 43 00 44 00     ..L.U.F.A. .C.D.
      bc:	43 00 20 00 44 00 65 00 6d 00 6f 00 00 00           C. .D.e.m.o...

000000ca <ManufacturerString>:
      ca:	18 03 44 00 65 00 61 00 6e 00 20 00 43 00 61 00     ..D.e.a.n. .C.a.
      da:	6d 00 65 00 72 00 61 00 00 00                       m.e.r.a...

000000e4 <LanguageString>:
      e4:	04 03 09 04                                         ....

000000e8 <ConfigurationDescriptor>:
      e8:	09 02 3e 00 02 01 00 c0 32 09 04 00 00 01 02 02     ..>.....2.......
      f8:	01 00 05 24 00 10 01 04 24 02 06 05 24 06 00 01     ...$....$...$...
     108:	07 05 82 03 08 00 ff 09 04 01 00 02 0a 00 00 00     ................
     118:	07 05 04 02 10 00 05 07 05 83 02 10 00 05           ..............

00000126 <DeviceDescriptor>:
     126:	12 01 10 01 02 00 00 08 eb 03 44 20 01 00 01 02     ..........D ....
     136:	dc 01                                               ..

00000138 <__ctors_end>:
     138:	11 24       	eor	r1, r1
     13a:	1f be       	out	0x3f, r1	; 63
     13c:	cf ef       	ldi	r28, 0xFF	; 255
     13e:	da e0       	ldi	r29, 0x0A	; 10
     140:	de bf       	out	0x3e, r29	; 62
     142:	cd bf       	out	0x3d, r28	; 61

00000144 <__do_copy_data>:
     144:	11 e0       	ldi	r17, 0x01	; 1
     146:	a0 e0       	ldi	r26, 0x00	; 0
     148:	b1 e0       	ldi	r27, 0x01	; 1
     14a:	e6 e8       	ldi	r30, 0x86	; 134
     14c:	fb e2       	ldi	r31, 0x2B	; 43
     14e:	02 c0       	rjmp	.+4      	; 0x154 <__do_copy_data+0x10>
     150:	05 90       	lpm	r0, Z+
     152:	0d 92       	st	X+, r0
     154:	a2 34       	cpi	r26, 0x42	; 66
     156:	b1 07       	cpc	r27, r17
     158:	d9 f7       	brne	.-10     	; 0x150 <__do_copy_data+0xc>

0000015a <__do_clear_bss>:
     15a:	21 e0       	ldi	r18, 0x01	; 1
     15c:	a2 e4       	ldi	r26, 0x42	; 66
     15e:	b1 e0       	ldi	r27, 0x01	; 1
     160:	01 c0       	rjmp	.+2      	; 0x164 <.do_clear_bss_start>

00000162 <.do_clear_bss_loop>:
     162:	1d 92       	st	X+, r1

00000164 <.do_clear_bss_start>:
     164:	aa 36       	cpi	r26, 0x6A	; 106
     166:	b2 07       	cpc	r27, r18
     168:	e1 f7       	brne	.-8      	; 0x162 <.do_clear_bss_loop>
     16a:	0e 94 4b 02 	call	0x496	; 0x496 <main>
     16e:	0c 94 c1 15 	jmp	0x2b82	; 0x2b82 <_exit>

00000172 <__bad_interrupt>:
     172:	0c 94 00 00 	jmp	0	; 0x0 <__vectors>

00000176 <USB>:
#include "VirtualSerial.h"

extern USB_ClassInfo_CDC_Device_t VirtualSerial_CDC_Interface;
extern FILE USBSerialStream;

void USB(uint32_t freq_error) {
     176:	cf 93       	push	r28
     178:	df 93       	push	r29
     17a:	cd b7       	in	r28, 0x3d	; 61
     17c:	de b7       	in	r29, 0x3e	; 62
     17e:	64 97       	sbiw	r28, 0x14	; 20
     180:	0f b6       	in	r0, 0x3f	; 63
     182:	f8 94       	cli
     184:	de bf       	out	0x3e, r29	; 62
     186:	0f be       	out	0x3f, r0	; 63
     188:	cd bf       	out	0x3d, r28	; 61
     18a:	c6 2e       	mov	r12, r22
     18c:	b7 2e       	mov	r11, r23
     18e:	a8 2e       	mov	r10, r24
     190:	99 2e       	mov	r9, r25
    char buffer[20];
     SetupHardware();
     192:	0e 94 cc 02 	call	0x598	; 0x598 <SetupHardware>
/* Create a regular character stream for the interface so that it can be used with the stdio.h functions */
  CDC_Device_CreateStream(&VirtualSerial_CDC_Interface, &USBSerialStream);
     196:	6f e4       	ldi	r22, 0x4F	; 79
     198:	71 e0       	ldi	r23, 0x01	; 1
     19a:	81 e0       	ldi	r24, 0x01	; 1
     19c:	91 e0       	ldi	r25, 0x01	; 1
     19e:	0e 94 b5 07 	call	0xf6a	; 0xf6a <CDC_Device_CreateStream>
			static inline void GlobalInterruptEnable(void)
			{
				GCC_MEMORY_BARRIER();

				#if (ARCH == ARCH_AVR8)
				sei();
     1a2:	78 94       	sei
  GlobalInterruptEnable();
  
    while (1){
    sprintf(buffer, "F_ERR:%ld\n", freq_error);  
     1a4:	86 e3       	ldi	r24, 0x36	; 54
     1a6:	e8 2e       	mov	r14, r24
     1a8:	81 e0       	ldi	r24, 0x01	; 1
     1aa:	f8 2e       	mov	r15, r24
     1ac:	8e 01       	movw	r16, r28
     1ae:	0f 5f       	subi	r16, 0xFF	; 255
     1b0:	1f 4f       	sbci	r17, 0xFF	; 255
     1b2:	9f 92       	push	r9
     1b4:	af 92       	push	r10
     1b6:	bf 92       	push	r11
     1b8:	cf 92       	push	r12
     1ba:	ff 92       	push	r15
     1bc:	ef 92       	push	r14
     1be:	1f 93       	push	r17
     1c0:	0f 93       	push	r16
     1c2:	0e 94 f9 12 	call	0x25f2	; 0x25f2 <sprintf>
    for (uint8_t i = 0; i < strlen(buffer); i++) {
     1c6:	0f b6       	in	r0, 0x3f	; 63
     1c8:	f8 94       	cli
     1ca:	de bf       	out	0x3e, r29	; 62
     1cc:	0f be       	out	0x3f, r0	; 63
     1ce:	cd bf       	out	0x3d, r28	; 61
     1d0:	d1 2c       	mov	r13, r1
     1d2:	f8 01       	movw	r30, r16
     1d4:	01 90       	ld	r0, Z+
     1d6:	00 20       	and	r0, r0
     1d8:	e9 f7       	brne	.-6      	; 0x1d4 <USB+0x5e>
     1da:	31 97       	sbiw	r30, 0x01	; 1
     1dc:	e0 1b       	sub	r30, r16
     1de:	f1 0b       	sbc	r31, r17
     1e0:	8d 2d       	mov	r24, r13
     1e2:	90 e0       	ldi	r25, 0x00	; 0
     1e4:	8e 17       	cp	r24, r30
     1e6:	9f 07       	cpc	r25, r31
     1e8:	68 f4       	brcc	.+26     	; 0x204 <USB+0x8e>
        fputc(buffer[i], &USBSerialStream);
     1ea:	f8 01       	movw	r30, r16
     1ec:	e8 0f       	add	r30, r24
     1ee:	f9 1f       	adc	r31, r25
     1f0:	80 81       	ld	r24, Z
     1f2:	6f e4       	ldi	r22, 0x4F	; 79
     1f4:	71 e0       	ldi	r23, 0x01	; 1
     1f6:	08 2e       	mov	r0, r24
     1f8:	00 0c       	add	r0, r0
     1fa:	99 0b       	sbc	r25, r25
     1fc:	0e 94 93 12 	call	0x2526	; 0x2526 <fputc>
  CDC_Device_CreateStream(&VirtualSerial_CDC_Interface, &USBSerialStream);
  GlobalInterruptEnable();
  
    while (1){
    sprintf(buffer, "F_ERR:%ld\n", freq_error);  
    for (uint8_t i = 0; i < strlen(buffer); i++) {
     200:	d3 94       	inc	r13
     202:	e7 cf       	rjmp	.-50     	; 0x1d2 <USB+0x5c>
        fputc(buffer[i], &USBSerialStream);
    }

    CDC_Device_USBTask(&VirtualSerial_CDC_Interface);
     204:	81 e0       	ldi	r24, 0x01	; 1
     206:	91 e0       	ldi	r25, 0x01	; 1
     208:	0e 94 d2 06 	call	0xda4	; 0xda4 <CDC_Device_USBTask>
    USB_USBTask();
     20c:	0e 94 e8 05 	call	0xbd0	; 0xbd0 <USB_USBTask>
    }
     210:	d0 cf       	rjmp	.-96     	; 0x1b2 <USB+0x3c>

00000212 <sature_integrale>:
    erreur_avant = erreur;
    return commande_pwm;
}

// Fonction limite l'intégrale
void sature_integrale(float *integrale) {
     212:	cf 92       	push	r12
     214:	df 92       	push	r13
     216:	ef 92       	push	r14
     218:	ff 92       	push	r15
     21a:	cf 93       	push	r28
     21c:	df 93       	push	r29
     21e:	ec 01       	movw	r28, r24
    const float integrale_max = 1000.0f;
    if (*integrale > integrale_max) *integrale = integrale_max;
     220:	c8 80       	ld	r12, Y
     222:	d9 80       	ldd	r13, Y+1	; 0x01
     224:	ea 80       	ldd	r14, Y+2	; 0x02
     226:	fb 80       	ldd	r15, Y+3	; 0x03
     228:	20 e0       	ldi	r18, 0x00	; 0
     22a:	30 e0       	ldi	r19, 0x00	; 0
     22c:	4a e7       	ldi	r20, 0x7A	; 122
     22e:	54 e4       	ldi	r21, 0x44	; 68
     230:	c7 01       	movw	r24, r14
     232:	b6 01       	movw	r22, r12
     234:	0e 94 21 12 	call	0x2442	; 0x2442 <__gesf2>
     238:	18 16       	cp	r1, r24
     23a:	2c f4       	brge	.+10     	; 0x246 <sature_integrale+0x34>
     23c:	80 e0       	ldi	r24, 0x00	; 0
     23e:	90 e0       	ldi	r25, 0x00	; 0
     240:	aa e7       	ldi	r26, 0x7A	; 122
     242:	b4 e4       	ldi	r27, 0x44	; 68
     244:	0e c0       	rjmp	.+28     	; 0x262 <sature_integrale+0x50>
    else if (*integrale < -integrale_max) *integrale = -integrale_max;
     246:	20 e0       	ldi	r18, 0x00	; 0
     248:	30 e0       	ldi	r19, 0x00	; 0
     24a:	4a e7       	ldi	r20, 0x7A	; 122
     24c:	54 ec       	ldi	r21, 0xC4	; 196
     24e:	c7 01       	movw	r24, r14
     250:	b6 01       	movw	r22, r12
     252:	0e 94 3b 11 	call	0x2276	; 0x2276 <__cmpsf2>
     256:	87 ff       	sbrs	r24, 7
     258:	08 c0       	rjmp	.+16     	; 0x26a <sature_integrale+0x58>
     25a:	80 e0       	ldi	r24, 0x00	; 0
     25c:	90 e0       	ldi	r25, 0x00	; 0
     25e:	aa e7       	ldi	r26, 0x7A	; 122
     260:	b4 ec       	ldi	r27, 0xC4	; 196
     262:	88 83       	st	Y, r24
     264:	99 83       	std	Y+1, r25	; 0x01
     266:	aa 83       	std	Y+2, r26	; 0x02
     268:	bb 83       	std	Y+3, r27	; 0x03
}
     26a:	df 91       	pop	r29
     26c:	cf 91       	pop	r28
     26e:	ff 90       	pop	r15
     270:	ef 90       	pop	r14
     272:	df 90       	pop	r13
     274:	cf 90       	pop	r12
     276:	08 95       	ret

00000278 <PID>:
#include <avr/io.h>
#include "Descriptors.h"
#include <stdint.h>
#include "VirtualSerial.h"

float PID(float consigne, float freq_mesure) {
     278:	8f 92       	push	r8
     27a:	9f 92       	push	r9
     27c:	af 92       	push	r10
     27e:	bf 92       	push	r11
     280:	cf 92       	push	r12
     282:	df 92       	push	r13
     284:	ef 92       	push	r14
     286:	ff 92       	push	r15
     288:	0f 93       	push	r16
     28a:	1f 93       	push	r17
     28c:	cf 93       	push	r28
     28e:	df 93       	push	r29
     290:	69 01       	movw	r12, r18
     292:	7a 01       	movw	r14, r20
    static float erreur_avant = 0.0f;
    static float dt =1.0f;

    // Calcul de l'erreur
    float erreur = freq_mesure;
    integrale += erreur * dt;
     294:	60 91 46 01 	lds	r22, 0x0146	; 0x800146 <integrale.4247>
     298:	70 91 47 01 	lds	r23, 0x0147	; 0x800147 <integrale.4247+0x1>
     29c:	80 91 48 01 	lds	r24, 0x0148	; 0x800148 <integrale.4247+0x2>
     2a0:	90 91 49 01 	lds	r25, 0x0149	; 0x800149 <integrale.4247+0x3>
     2a4:	0e 94 cf 10 	call	0x219e	; 0x219e <__addsf3>
     2a8:	60 93 46 01 	sts	0x0146, r22	; 0x800146 <integrale.4247>
     2ac:	70 93 47 01 	sts	0x0147, r23	; 0x800147 <integrale.4247+0x1>
     2b0:	80 93 48 01 	sts	0x0148, r24	; 0x800148 <integrale.4247+0x2>
     2b4:	90 93 49 01 	sts	0x0149, r25	; 0x800149 <integrale.4247+0x3>
    sature_integrale(&integrale);
     2b8:	86 e4       	ldi	r24, 0x46	; 70
     2ba:	91 e0       	ldi	r25, 0x01	; 1
     2bc:	0e 94 09 01 	call	0x212	; 0x212 <sature_integrale>
    float derivee = (erreur - erreur_avant) / dt;
    //float commande_pwm = Kp * (erreur-erreur_avant) + Ki * erreur +consigne;//integrale + Kd * derivee;
    float commande_pwm = Kp * erreur + Ki * integrale + Kd * derivee;
     2c0:	2a e9       	ldi	r18, 0x9A	; 154
     2c2:	39 e9       	ldi	r19, 0x99	; 153
     2c4:	49 e9       	ldi	r20, 0x99	; 153
     2c6:	5f e3       	ldi	r21, 0x3F	; 63
     2c8:	60 91 46 01 	lds	r22, 0x0146	; 0x800146 <integrale.4247>
     2cc:	70 91 47 01 	lds	r23, 0x0147	; 0x800147 <integrale.4247+0x1>
     2d0:	80 91 48 01 	lds	r24, 0x0148	; 0x800148 <integrale.4247+0x2>
     2d4:	90 91 49 01 	lds	r25, 0x0149	; 0x800149 <integrale.4247+0x3>
     2d8:	0e 94 26 12 	call	0x244c	; 0x244c <__mulsf3>
     2dc:	4b 01       	movw	r8, r22
     2de:	5c 01       	movw	r10, r24
     2e0:	2a e9       	ldi	r18, 0x9A	; 154
     2e2:	39 e9       	ldi	r19, 0x99	; 153
     2e4:	49 e9       	ldi	r20, 0x99	; 153
     2e6:	5f e3       	ldi	r21, 0x3F	; 63
     2e8:	c7 01       	movw	r24, r14
     2ea:	b6 01       	movw	r22, r12
     2ec:	0e 94 26 12 	call	0x244c	; 0x244c <__mulsf3>
     2f0:	9b 01       	movw	r18, r22
     2f2:	ac 01       	movw	r20, r24
     2f4:	c5 01       	movw	r24, r10
     2f6:	b4 01       	movw	r22, r8
     2f8:	0e 94 cf 10 	call	0x219e	; 0x219e <__addsf3>
     2fc:	4b 01       	movw	r8, r22
     2fe:	5c 01       	movw	r10, r24
     300:	20 91 42 01 	lds	r18, 0x0142	; 0x800142 <__data_end>
     304:	30 91 43 01 	lds	r19, 0x0143	; 0x800143 <__data_end+0x1>
     308:	40 91 44 01 	lds	r20, 0x0144	; 0x800144 <__data_end+0x2>
     30c:	50 91 45 01 	lds	r21, 0x0145	; 0x800145 <__data_end+0x3>
     310:	c7 01       	movw	r24, r14
     312:	b6 01       	movw	r22, r12
     314:	0e 94 ce 10 	call	0x219c	; 0x219c <__subsf3>
     318:	2a e0       	ldi	r18, 0x0A	; 10
     31a:	37 ed       	ldi	r19, 0xD7	; 215
     31c:	43 e2       	ldi	r20, 0x23	; 35
     31e:	5c e3       	ldi	r21, 0x3C	; 60
     320:	0e 94 26 12 	call	0x244c	; 0x244c <__mulsf3>
     324:	9b 01       	movw	r18, r22
     326:	ac 01       	movw	r20, r24
     328:	c5 01       	movw	r24, r10
     32a:	b4 01       	movw	r22, r8
     32c:	0e 94 cf 10 	call	0x219e	; 0x219e <__addsf3>
     330:	8b 01       	movw	r16, r22
     332:	d8 2f       	mov	r29, r24
     334:	c9 2f       	mov	r28, r25
    else if (*integrale < -integrale_max) *integrale = -integrale_max;
}

// Fonction de saturation de la commande PWM
float sature_commande(float commande) {
    if (commande > 50.0f) return 50.0f; //limite de 1023 (8bits)
     336:	20 e0       	ldi	r18, 0x00	; 0
     338:	30 e0       	ldi	r19, 0x00	; 0
     33a:	48 e4       	ldi	r20, 0x48	; 72
     33c:	52 e4       	ldi	r21, 0x42	; 66
     33e:	0e 94 21 12 	call	0x2442	; 0x2442 <__gesf2>
     342:	18 16       	cp	r1, r24
     344:	84 f0       	brlt	.+32     	; 0x366 <PID+0xee>
    if (commande < -50.0f) return -50.0f;
     346:	20 e0       	ldi	r18, 0x00	; 0
     348:	30 e0       	ldi	r19, 0x00	; 0
     34a:	48 e4       	ldi	r20, 0x48	; 72
     34c:	52 ec       	ldi	r21, 0xC2	; 194
     34e:	b8 01       	movw	r22, r16
     350:	8d 2f       	mov	r24, r29
     352:	9c 2f       	mov	r25, r28
     354:	0e 94 3b 11 	call	0x2276	; 0x2276 <__cmpsf2>
     358:	87 ff       	sbrs	r24, 7
     35a:	09 c0       	rjmp	.+18     	; 0x36e <PID+0xf6>
     35c:	00 e0       	ldi	r16, 0x00	; 0
     35e:	10 e0       	ldi	r17, 0x00	; 0
     360:	d8 e4       	ldi	r29, 0x48	; 72
     362:	c2 ec       	ldi	r28, 0xC2	; 194
     364:	04 c0       	rjmp	.+8      	; 0x36e <PID+0xf6>
    else if (*integrale < -integrale_max) *integrale = -integrale_max;
}

// Fonction de saturation de la commande PWM
float sature_commande(float commande) {
    if (commande > 50.0f) return 50.0f; //limite de 1023 (8bits)
     366:	00 e0       	ldi	r16, 0x00	; 0
     368:	10 e0       	ldi	r17, 0x00	; 0
     36a:	d8 e4       	ldi	r29, 0x48	; 72
     36c:	c2 e4       	ldi	r28, 0x42	; 66
    sature_integrale(&integrale);
    float derivee = (erreur - erreur_avant) / dt;
    //float commande_pwm = Kp * (erreur-erreur_avant) + Ki * erreur +consigne;//integrale + Kd * derivee;
    float commande_pwm = Kp * erreur + Ki * integrale + Kd * derivee;
    commande_pwm = sature_commande(commande_pwm);
    erreur_avant = erreur;
     36e:	c0 92 42 01 	sts	0x0142, r12	; 0x800142 <__data_end>
     372:	d0 92 43 01 	sts	0x0143, r13	; 0x800143 <__data_end+0x1>
     376:	e0 92 44 01 	sts	0x0144, r14	; 0x800144 <__data_end+0x2>
     37a:	f0 92 45 01 	sts	0x0145, r15	; 0x800145 <__data_end+0x3>
    return commande_pwm;
}
     37e:	b8 01       	movw	r22, r16
     380:	8d 2f       	mov	r24, r29
     382:	9c 2f       	mov	r25, r28
     384:	df 91       	pop	r29
     386:	cf 91       	pop	r28
     388:	1f 91       	pop	r17
     38a:	0f 91       	pop	r16
     38c:	ff 90       	pop	r15
     38e:	ef 90       	pop	r14
     390:	df 90       	pop	r13
     392:	cf 90       	pop	r12
     394:	bf 90       	pop	r11
     396:	af 90       	pop	r10
     398:	9f 90       	pop	r9
     39a:	8f 90       	pop	r8
     39c:	08 95       	ret

0000039e <sature_commande>:
    if (*integrale > integrale_max) *integrale = integrale_max;
    else if (*integrale < -integrale_max) *integrale = -integrale_max;
}

// Fonction de saturation de la commande PWM
float sature_commande(float commande) {
     39e:	0f 93       	push	r16
     3a0:	1f 93       	push	r17
     3a2:	cf 93       	push	r28
     3a4:	df 93       	push	r29
     3a6:	8b 01       	movw	r16, r22
     3a8:	d8 2f       	mov	r29, r24
     3aa:	c9 2f       	mov	r28, r25
    if (commande > 50.0f) return 50.0f; //limite de 1023 (8bits)
     3ac:	20 e0       	ldi	r18, 0x00	; 0
     3ae:	30 e0       	ldi	r19, 0x00	; 0
     3b0:	48 e4       	ldi	r20, 0x48	; 72
     3b2:	52 e4       	ldi	r21, 0x42	; 66
     3b4:	0e 94 21 12 	call	0x2442	; 0x2442 <__gesf2>
     3b8:	18 16       	cp	r1, r24
     3ba:	84 f0       	brlt	.+32     	; 0x3dc <sature_commande+0x3e>
    if (commande < -50.0f) return -50.0f;
     3bc:	20 e0       	ldi	r18, 0x00	; 0
     3be:	30 e0       	ldi	r19, 0x00	; 0
     3c0:	48 e4       	ldi	r20, 0x48	; 72
     3c2:	52 ec       	ldi	r21, 0xC2	; 194
     3c4:	b8 01       	movw	r22, r16
     3c6:	8d 2f       	mov	r24, r29
     3c8:	9c 2f       	mov	r25, r28
     3ca:	0e 94 3b 11 	call	0x2276	; 0x2276 <__cmpsf2>
     3ce:	87 ff       	sbrs	r24, 7
     3d0:	09 c0       	rjmp	.+18     	; 0x3e4 <sature_commande+0x46>
     3d2:	00 e0       	ldi	r16, 0x00	; 0
     3d4:	10 e0       	ldi	r17, 0x00	; 0
     3d6:	d8 e4       	ldi	r29, 0x48	; 72
     3d8:	c2 ec       	ldi	r28, 0xC2	; 194
     3da:	04 c0       	rjmp	.+8      	; 0x3e4 <sature_commande+0x46>
    else if (*integrale < -integrale_max) *integrale = -integrale_max;
}

// Fonction de saturation de la commande PWM
float sature_commande(float commande) {
    if (commande > 50.0f) return 50.0f; //limite de 1023 (8bits)
     3dc:	00 e0       	ldi	r16, 0x00	; 0
     3de:	10 e0       	ldi	r17, 0x00	; 0
     3e0:	d8 e4       	ldi	r29, 0x48	; 72
     3e2:	c2 e4       	ldi	r28, 0x42	; 66
    if (commande < -50.0f) return -50.0f;
    return commande;
}
     3e4:	b8 01       	movw	r22, r16
     3e6:	8d 2f       	mov	r24, r29
     3e8:	9c 2f       	mov	r25, r28
     3ea:	df 91       	pop	r29
     3ec:	cf 91       	pop	r28
     3ee:	1f 91       	pop	r17
     3f0:	0f 91       	pop	r16
     3f2:	08 95       	ret

000003f4 <setup_input_capture>:
volatile uint8_t measurement_done = 0;
volatile uint8_t first_capture = 1;

void setup_input_capture() {
    // PD4 en entrée (ICP1)
    DDRD &= ~(1 << PD4);
     3f4:	54 98       	cbi	0x0a, 4	; 10

    TCCR1A = 0; // Mode normal
     3f6:	10 92 80 00 	sts	0x0080, r1	; 0x800080 <__TEXT_REGION_LENGTH__+0x7f8080>
    TCCR1B = (1 << ICES1) | (1 << CS10); // Front montant, pas de prescaler (16 MHz)
     3fa:	81 e4       	ldi	r24, 0x41	; 65
     3fc:	80 93 81 00 	sts	0x0081, r24	; 0x800081 <__TEXT_REGION_LENGTH__+0x7f8081>
    TIMSK1 |= (1 << ICIE1); // Activation interruption capture
     400:	ef e6       	ldi	r30, 0x6F	; 111
     402:	f0 e0       	ldi	r31, 0x00	; 0
     404:	80 81       	ld	r24, Z
     406:	80 62       	ori	r24, 0x20	; 32
     408:	80 83       	st	Z, r24
     40a:	08 95       	ret

0000040c <__vector_16>:
}

ISR(TIMER1_CAPT_vect) {
     40c:	1f 92       	push	r1
     40e:	0f 92       	push	r0
     410:	0f b6       	in	r0, 0x3f	; 63
     412:	0f 92       	push	r0
     414:	11 24       	eor	r1, r1
     416:	8f 93       	push	r24
     418:	9f 93       	push	r25
     41a:	af 93       	push	r26
     41c:	bf 93       	push	r27
    if (first_capture) {
     41e:	80 91 00 01 	lds	r24, 0x0100	; 0x800100 <__DATA_REGION_ORIGIN__>
     422:	88 23       	and	r24, r24
     424:	39 f0       	breq	.+14     	; 0x434 <__vector_16+0x28>
        TCNT1 = 0;
     426:	10 92 85 00 	sts	0x0085, r1	; 0x800085 <__TEXT_REGION_LENGTH__+0x7f8085>
     42a:	10 92 84 00 	sts	0x0084, r1	; 0x800084 <__TEXT_REGION_LENGTH__+0x7f8084>
        first_capture = 0;
     42e:	10 92 00 01 	sts	0x0100, r1	; 0x800100 <__DATA_REGION_ORIGIN__>
     432:	13 c0       	rjmp	.+38     	; 0x45a <__vector_16+0x4e>
    } else {
        cycle_count = ICR1;
     434:	80 91 86 00 	lds	r24, 0x0086	; 0x800086 <__TEXT_REGION_LENGTH__+0x7f8086>
     438:	90 91 87 00 	lds	r25, 0x0087	; 0x800087 <__TEXT_REGION_LENGTH__+0x7f8087>
     43c:	a0 e0       	ldi	r26, 0x00	; 0
     43e:	b0 e0       	ldi	r27, 0x00	; 0
     440:	80 93 4b 01 	sts	0x014B, r24	; 0x80014b <cycle_count>
     444:	90 93 4c 01 	sts	0x014C, r25	; 0x80014c <cycle_count+0x1>
     448:	a0 93 4d 01 	sts	0x014D, r26	; 0x80014d <cycle_count+0x2>
     44c:	b0 93 4e 01 	sts	0x014E, r27	; 0x80014e <cycle_count+0x3>
        measurement_done = 1;
     450:	81 e0       	ldi	r24, 0x01	; 1
     452:	80 93 4a 01 	sts	0x014A, r24	; 0x80014a <measurement_done>
        first_capture = 1;
     456:	80 93 00 01 	sts	0x0100, r24	; 0x800100 <__DATA_REGION_ORIGIN__>
    }
}
     45a:	bf 91       	pop	r27
     45c:	af 91       	pop	r26
     45e:	9f 91       	pop	r25
     460:	8f 91       	pop	r24
     462:	0f 90       	pop	r0
     464:	0f be       	out	0x3f, r0	; 63
     466:	0f 90       	pop	r0
     468:	1f 90       	pop	r1
     46a:	18 95       	reti

0000046c <measure_cycles>:
     46c:	10 92 4a 01 	sts	0x014A, r1	; 0x80014a <measurement_done>
     470:	80 91 4a 01 	lds	r24, 0x014A	; 0x80014a <measurement_done>
     474:	88 23       	and	r24, r24
     476:	e1 f3       	breq	.-8      	; 0x470 <measure_cycles+0x4>
     478:	80 91 4b 01 	lds	r24, 0x014B	; 0x80014b <cycle_count>
     47c:	90 91 4c 01 	lds	r25, 0x014C	; 0x80014c <cycle_count+0x1>
     480:	a0 91 4d 01 	lds	r26, 0x014D	; 0x80014d <cycle_count+0x2>
     484:	b0 91 4e 01 	lds	r27, 0x014E	; 0x80014e <cycle_count+0x3>
     488:	bc 01       	movw	r22, r24
     48a:	cd 01       	movw	r24, r26
     48c:	61 5c       	subi	r22, 0xC1	; 193
     48e:	78 42       	sbci	r23, 0x28	; 40
     490:	81 09       	sbc	r24, r1
     492:	91 09       	sbc	r25, r1
     494:	08 95       	ret

00000496 <main>:
//#include <init_PWM_PD7.h>

extern USB_ClassInfo_CDC_Device_t VirtualSerial_CDC_Interface;
extern FILE USBSerialStream;

int main(void) {
     496:	cf 93       	push	r28
     498:	df 93       	push	r29
     49a:	cd b7       	in	r28, 0x3d	; 61
     49c:	de b7       	in	r29, 0x3e	; 62
     49e:	a8 97       	sbiw	r28, 0x28	; 40
     4a0:	0f b6       	in	r0, 0x3f	; 63
     4a2:	f8 94       	cli
     4a4:	de bf       	out	0x3e, r29	; 62
     4a6:	0f be       	out	0x3f, r0	; 63
     4a8:	cd bf       	out	0x3d, r28	; 61
    char buffer[40]; 
    SetupHardware();
     4aa:	0e 94 cc 02 	call	0x598	; 0x598 <SetupHardware>
    CDC_Device_CreateStream(&VirtualSerial_CDC_Interface, &USBSerialStream);
     4ae:	6f e4       	ldi	r22, 0x4F	; 79
     4b0:	71 e0       	ldi	r23, 0x01	; 1
     4b2:	81 e0       	ldi	r24, 0x01	; 1
     4b4:	91 e0       	ldi	r25, 0x01	; 1
     4b6:	0e 94 b5 07 	call	0xf6a	; 0xf6a <CDC_Device_CreateStream>
   
    
    // Configuration PWM sur PD7 (OCR4A)
    DDRD |= (1 << PD7);
     4ba:	57 9a       	sbi	0x0a, 7	; 10
    TCCR4B = (1 << CS40); //prescaler de 1
     4bc:	91 e0       	ldi	r25, 0x01	; 1
     4be:	90 93 c1 00 	sts	0x00C1, r25	; 0x8000c1 <__TEXT_REGION_LENGTH__+0x7f80c1>
    TC4H=0x03;
     4c2:	83 e0       	ldi	r24, 0x03	; 3
     4c4:	80 93 bf 00 	sts	0x00BF, r24	; 0x8000bf <__TEXT_REGION_LENGTH__+0x7f80bf>
    OCR4C=0xff;  // periode
     4c8:	8f ef       	ldi	r24, 0xFF	; 255
     4ca:	80 93 d1 00 	sts	0x00D1, r24	; 0x8000d1 <__TEXT_REGION_LENGTH__+0x7f80d1>
    TCCR4C |= ((1<<COM4D1) | (1<<PWM4D));  // 0x82
     4ce:	80 91 c2 00 	lds	r24, 0x00C2	; 0x8000c2 <__TEXT_REGION_LENGTH__+0x7f80c2>
     4d2:	89 60       	ori	r24, 0x09	; 9
     4d4:	80 93 c2 00 	sts	0x00C2, r24	; 0x8000c2 <__TEXT_REGION_LENGTH__+0x7f80c2>
    TC4H=0x01;
     4d8:	90 93 bf 00 	sts	0x00BF, r25	; 0x8000bf <__TEXT_REGION_LENGTH__+0x7f80bf>
    OCR4D = 0;   // rapport cyclique
     4dc:	10 92 d2 00 	sts	0x00D2, r1	; 0x8000d2 <__TEXT_REGION_LENGTH__+0x7f80d2>
    
    //Configuration input sur PD4 (ICP1)
    DDRD &= ~(1 << PD4);
     4e0:	54 98       	cbi	0x0a, 4	; 10
 //       CDC_Device_USBTask(&VirtualSerial_CDC_Interface);
  //      USB_USBTask();

	//	}
    
    setup_input_capture();
     4e2:	0e 94 fa 01 	call	0x3f4	; 0x3f4 <setup_input_capture>
     4e6:	78 94       	sei
    //setup_reference_timer();
     GlobalInterruptEnable();
    uint32_t err = 0;
    uint32_t c = 0;
     4e8:	c1 2c       	mov	r12, r1
     4ea:	d1 2c       	mov	r13, r1
     4ec:	76 01       	movw	r14, r12
        err = measure_cycles();
        //sei();
        c = PID(c, err);
        TC4H=   ((c >> 8) > 3) ? 3 : (c >> 8);
        OCR4D = (c > 1023) ? 1023 : c;
        sprintf(buffer, "Cmd:%ld Err:%ld\r\n", c ,err);  
     4ee:	94 e2       	ldi	r25, 0x24	; 36
     4f0:	a9 2e       	mov	r10, r25
     4f2:	91 e0       	ldi	r25, 0x01	; 1
     4f4:	b9 2e       	mov	r11, r25
     4f6:	8e 01       	movw	r16, r28
     4f8:	0f 5f       	subi	r16, 0xFF	; 255
     4fa:	1f 4f       	sbci	r17, 0xFF	; 255
     GlobalInterruptEnable();
    uint32_t err = 0;
    uint32_t c = 0;
    while (1) {
        // cli();
        err = measure_cycles();
     4fc:	0e 94 36 02 	call	0x46c	; 0x46c <measure_cycles>
     500:	96 2e       	mov	r9, r22
     502:	87 2e       	mov	r8, r23
     504:	38 2e       	mov	r3, r24
     506:	29 2e       	mov	r2, r25
        //sei();
        c = PID(c, err);
     508:	0e 94 6f 11 	call	0x22de	; 0x22de <__floatunsisf>
     50c:	2b 01       	movw	r4, r22
     50e:	3c 01       	movw	r6, r24
     510:	c7 01       	movw	r24, r14
     512:	b6 01       	movw	r22, r12
     514:	0e 94 6f 11 	call	0x22de	; 0x22de <__floatunsisf>
     518:	a3 01       	movw	r20, r6
     51a:	92 01       	movw	r18, r4
     51c:	0e 94 3c 01 	call	0x278	; 0x278 <PID>
     520:	0e 94 40 11 	call	0x2280	; 0x2280 <__fixunssfsi>
     524:	6b 01       	movw	r12, r22
     526:	7c 01       	movw	r14, r24
        TC4H=   ((c >> 8) > 3) ? 3 : (c >> 8);
     528:	bb 27       	eor	r27, r27
     52a:	af 2d       	mov	r26, r15
     52c:	9e 2d       	mov	r25, r14
     52e:	8d 2d       	mov	r24, r13
     530:	84 30       	cpi	r24, 0x04	; 4
     532:	91 05       	cpc	r25, r1
     534:	a1 05       	cpc	r26, r1
     536:	b1 05       	cpc	r27, r1
     538:	20 f0       	brcs	.+8      	; 0x542 <main+0xac>
     53a:	83 e0       	ldi	r24, 0x03	; 3
     53c:	90 e0       	ldi	r25, 0x00	; 0
     53e:	a0 e0       	ldi	r26, 0x00	; 0
     540:	b0 e0       	ldi	r27, 0x00	; 0
     542:	80 93 bf 00 	sts	0x00BF, r24	; 0x8000bf <__TEXT_REGION_LENGTH__+0x7f80bf>
        OCR4D = (c > 1023) ? 1023 : c;
     546:	8c 2d       	mov	r24, r12
     548:	c1 14       	cp	r12, r1
     54a:	94 e0       	ldi	r25, 0x04	; 4
     54c:	d9 06       	cpc	r13, r25
     54e:	e1 04       	cpc	r14, r1
     550:	f1 04       	cpc	r15, r1
     552:	08 f0       	brcs	.+2      	; 0x556 <main+0xc0>
     554:	8f ef       	ldi	r24, 0xFF	; 255
     556:	80 93 d2 00 	sts	0x00D2, r24	; 0x8000d2 <__TEXT_REGION_LENGTH__+0x7f80d2>
        sprintf(buffer, "Cmd:%ld Err:%ld\r\n", c ,err);  
     55a:	2f 92       	push	r2
     55c:	3f 92       	push	r3
     55e:	8f 92       	push	r8
     560:	9f 92       	push	r9
     562:	ff 92       	push	r15
     564:	ef 92       	push	r14
     566:	df 92       	push	r13
     568:	cf 92       	push	r12
     56a:	bf 92       	push	r11
     56c:	af 92       	push	r10
     56e:	1f 93       	push	r17
     570:	0f 93       	push	r16
     572:	0e 94 f9 12 	call	0x25f2	; 0x25f2 <sprintf>
        fputs(buffer, &USBSerialStream);
     576:	6f e4       	ldi	r22, 0x4F	; 79
     578:	71 e0       	ldi	r23, 0x01	; 1
     57a:	c8 01       	movw	r24, r16
     57c:	0e 94 cf 12 	call	0x259e	; 0x259e <fputs>
        CDC_Device_USBTask(&VirtualSerial_CDC_Interface);
     580:	81 e0       	ldi	r24, 0x01	; 1
     582:	91 e0       	ldi	r25, 0x01	; 1
     584:	0e 94 d2 06 	call	0xda4	; 0xda4 <CDC_Device_USBTask>
        USB_USBTask();
     588:	0e 94 e8 05 	call	0xbd0	; 0xbd0 <USB_USBTask>
     58c:	0f b6       	in	r0, 0x3f	; 63
     58e:	f8 94       	cli
     590:	de bf       	out	0x3e, r29	; 62
     592:	0f be       	out	0x3f, r0	; 63
     594:	cd bf       	out	0x3d, r28	; 61
     596:	b2 cf       	rjmp	.-156    	; 0x4fc <main+0x66>

00000598 <SetupHardware>:
     598:	84 b7       	in	r24, 0x34	; 52
     59a:	87 7f       	andi	r24, 0xF7	; 247
     59c:	84 bf       	out	0x34, r24	; 52
		);
	}
	else
	{
        uint8_t register temp_reg;
		__asm__ __volatile__ (
     59e:	0f b6       	in	r0, 0x3f	; 63
     5a0:	f8 94       	cli
     5a2:	a8 95       	wdr
     5a4:	80 91 60 00 	lds	r24, 0x0060	; 0x800060 <__TEXT_REGION_LENGTH__+0x7f8060>
     5a8:	88 61       	ori	r24, 0x18	; 24
     5aa:	80 93 60 00 	sts	0x0060, r24	; 0x800060 <__TEXT_REGION_LENGTH__+0x7f8060>
     5ae:	10 92 60 00 	sts	0x0060, r1	; 0x800060 <__TEXT_REGION_LENGTH__+0x7f8060>
     5b2:	0f be       	out	0x3f, r0	; 63
from 1 to 129. Thus, one does not need to use \c clock_div_t type as argument.
*/
void clock_prescale_set(clock_div_t __x)
{
    uint8_t __tmp = _BV(CLKPCE);
    __asm__ __volatile__ (
     5b4:	90 e0       	ldi	r25, 0x00	; 0
     5b6:	80 e8       	ldi	r24, 0x80	; 128
     5b8:	0f b6       	in	r0, 0x3f	; 63
     5ba:	f8 94       	cli
     5bc:	80 93 61 00 	sts	0x0061, r24	; 0x800061 <__TEXT_REGION_LENGTH__+0x7f8061>
     5c0:	90 93 61 00 	sts	0x0061, r25	; 0x800061 <__TEXT_REGION_LENGTH__+0x7f8061>
     5c4:	0f be       	out	0x3f, r0	; 63
     5c6:	0c 94 54 03 	jmp	0x6a8	; 0x6a8 <USB_Init>

000005ca <EVENT_USB_Device_ConfigurationChanged>:
     5ca:	81 e0       	ldi	r24, 0x01	; 1
     5cc:	91 e0       	ldi	r25, 0x01	; 1
     5ce:	0e 94 03 06 	call	0xc06	; 0xc06 <CDC_Device_ConfigureEndpoints>
     5d2:	81 11       	cpse	r24, r1
     5d4:	02 c0       	rjmp	.+4      	; 0x5da <EVENT_USB_Device_ConfigurationChanged+0x10>
     5d6:	80 e9       	ldi	r24, 0x90	; 144
     5d8:	01 c0       	rjmp	.+2      	; 0x5dc <EVENT_USB_Device_ConfigurationChanged+0x12>
     5da:	80 e6       	ldi	r24, 0x60	; 96
     5dc:	9b b1       	in	r25, 0x0b	; 11
     5de:	9f 70       	andi	r25, 0x0F	; 15
     5e0:	89 2b       	or	r24, r25
     5e2:	8b b9       	out	0x0b, r24	; 11
     5e4:	08 95       	ret

000005e6 <EVENT_USB_Device_ControlRequest>:
     5e6:	81 e0       	ldi	r24, 0x01	; 1
     5e8:	91 e0       	ldi	r25, 0x01	; 1
     5ea:	0c 94 dc 07 	jmp	0xfb8	; 0xfb8 <CDC_Device_ProcessControlRequest>

000005ee <USB_Disable>:
     5ee:	0e 94 65 03 	call	0x6ca	; 0x6ca <USB_INT_DisableAllInterrupts>
     5f2:	0e 94 6d 03 	call	0x6da	; 0x6da <USB_INT_ClearAllInterrupts>
     5f6:	e0 ee       	ldi	r30, 0xE0	; 224
     5f8:	f0 e0       	ldi	r31, 0x00	; 0
     5fa:	80 81       	ld	r24, Z
     5fc:	81 60       	ori	r24, 0x01	; 1
     5fe:	80 83       	st	Z, r24
     600:	e8 ed       	ldi	r30, 0xD8	; 216
     602:	f0 e0       	ldi	r31, 0x00	; 0
     604:	80 81       	ld	r24, Z
     606:	8f 77       	andi	r24, 0x7F	; 127
     608:	80 83       	st	Z, r24
     60a:	19 bc       	out	0x29, r1	; 41
     60c:	a7 ed       	ldi	r26, 0xD7	; 215
     60e:	b0 e0       	ldi	r27, 0x00	; 0
     610:	8c 91       	ld	r24, X
     612:	8e 7f       	andi	r24, 0xFE	; 254
     614:	8c 93       	st	X, r24
     616:	80 81       	ld	r24, Z
     618:	8f 7e       	andi	r24, 0xEF	; 239
     61a:	80 83       	st	Z, r24
     61c:	10 92 60 01 	sts	0x0160, r1	; 0x800160 <USB_IsInitialized>
     620:	08 95       	ret

00000622 <USB_ResetInterface>:
     622:	0f 93       	push	r16
     624:	1f 93       	push	r17
     626:	cf 93       	push	r28
     628:	df 93       	push	r29
     62a:	0e 94 65 03 	call	0x6ca	; 0x6ca <USB_INT_DisableAllInterrupts>
     62e:	0e 94 6d 03 	call	0x6da	; 0x6da <USB_INT_ClearAllInterrupts>
     632:	c8 ed       	ldi	r28, 0xD8	; 216
     634:	d0 e0       	ldi	r29, 0x00	; 0
     636:	88 81       	ld	r24, Y
     638:	8f 77       	andi	r24, 0x7F	; 127
     63a:	88 83       	st	Y, r24
     63c:	88 81       	ld	r24, Y
     63e:	80 68       	ori	r24, 0x80	; 128
     640:	88 83       	st	Y, r24
     642:	88 81       	ld	r24, Y
     644:	8f 7d       	andi	r24, 0xDF	; 223
     646:	88 83       	st	Y, r24
     648:	19 bc       	out	0x29, r1	; 41
     64a:	10 92 61 01 	sts	0x0161, r1	; 0x800161 <USB_DeviceState>
     64e:	10 92 5d 01 	sts	0x015D, r1	; 0x80015d <USB_Device_ConfigurationNumber>
     652:	10 92 5f 01 	sts	0x015F, r1	; 0x80015f <USB_Device_RemoteWakeupEnabled>
     656:	10 92 5e 01 	sts	0x015E, r1	; 0x80015e <USB_Device_CurrentlySelfPowered>
     65a:	00 ee       	ldi	r16, 0xE0	; 224
     65c:	10 e0       	ldi	r17, 0x00	; 0
     65e:	f8 01       	movw	r30, r16
     660:	80 81       	ld	r24, Z
     662:	8b 7f       	andi	r24, 0xFB	; 251
     664:	80 83       	st	Z, r24
     666:	88 81       	ld	r24, Y
     668:	81 60       	ori	r24, 0x01	; 1
     66a:	88 83       	st	Y, r24
     66c:	42 e0       	ldi	r20, 0x02	; 2
     66e:	60 e0       	ldi	r22, 0x00	; 0
     670:	80 e0       	ldi	r24, 0x00	; 0
     672:	0e 94 f5 0f 	call	0x1fea	; 0x1fea <Endpoint_ConfigureEndpoint_Prv>
     676:	e1 ee       	ldi	r30, 0xE1	; 225
     678:	f0 e0       	ldi	r31, 0x00	; 0
     67a:	80 81       	ld	r24, Z
     67c:	8e 7f       	andi	r24, 0xFE	; 254
     67e:	80 83       	st	Z, r24
     680:	e2 ee       	ldi	r30, 0xE2	; 226
     682:	f0 e0       	ldi	r31, 0x00	; 0
     684:	80 81       	ld	r24, Z
     686:	81 60       	ori	r24, 0x01	; 1
     688:	80 83       	st	Z, r24
     68a:	80 81       	ld	r24, Z
     68c:	88 60       	ori	r24, 0x08	; 8
     68e:	80 83       	st	Z, r24
     690:	f8 01       	movw	r30, r16
     692:	80 81       	ld	r24, Z
     694:	8e 7f       	andi	r24, 0xFE	; 254
     696:	80 83       	st	Z, r24
     698:	88 81       	ld	r24, Y
     69a:	80 61       	ori	r24, 0x10	; 16
     69c:	88 83       	st	Y, r24
     69e:	df 91       	pop	r29
     6a0:	cf 91       	pop	r28
     6a2:	1f 91       	pop	r17
     6a4:	0f 91       	pop	r16
     6a6:	08 95       	ret

000006a8 <USB_Init>:
     6a8:	e8 ed       	ldi	r30, 0xD8	; 216
     6aa:	f0 e0       	ldi	r31, 0x00	; 0
     6ac:	80 81       	ld	r24, Z
     6ae:	8f 7e       	andi	r24, 0xEF	; 239
     6b0:	80 83       	st	Z, r24
     6b2:	e7 ed       	ldi	r30, 0xD7	; 215
     6b4:	f0 e0       	ldi	r31, 0x00	; 0
     6b6:	80 81       	ld	r24, Z
     6b8:	81 60       	ori	r24, 0x01	; 1
     6ba:	80 83       	st	Z, r24
     6bc:	84 e0       	ldi	r24, 0x04	; 4
     6be:	82 bf       	out	0x32, r24	; 50
     6c0:	81 e0       	ldi	r24, 0x01	; 1
     6c2:	80 93 60 01 	sts	0x0160, r24	; 0x800160 <USB_IsInitialized>
     6c6:	0c 94 11 03 	jmp	0x622	; 0x622 <USB_ResetInterface>

000006ca <USB_INT_DisableAllInterrupts>:
     6ca:	e8 ed       	ldi	r30, 0xD8	; 216
     6cc:	f0 e0       	ldi	r31, 0x00	; 0
     6ce:	80 81       	ld	r24, Z
     6d0:	8e 7f       	andi	r24, 0xFE	; 254
     6d2:	80 83       	st	Z, r24
     6d4:	10 92 e2 00 	sts	0x00E2, r1	; 0x8000e2 <__TEXT_REGION_LENGTH__+0x7f80e2>
     6d8:	08 95       	ret

000006da <USB_INT_ClearAllInterrupts>:
     6da:	10 92 da 00 	sts	0x00DA, r1	; 0x8000da <__TEXT_REGION_LENGTH__+0x7f80da>
     6de:	10 92 e1 00 	sts	0x00E1, r1	; 0x8000e1 <__TEXT_REGION_LENGTH__+0x7f80e1>
     6e2:	08 95       	ret

000006e4 <__vector_10>:
     6e4:	1f 92       	push	r1
     6e6:	0f 92       	push	r0
     6e8:	0f b6       	in	r0, 0x3f	; 63
     6ea:	0f 92       	push	r0
     6ec:	11 24       	eor	r1, r1
     6ee:	2f 93       	push	r18
     6f0:	3f 93       	push	r19
     6f2:	4f 93       	push	r20
     6f4:	5f 93       	push	r21
     6f6:	6f 93       	push	r22
     6f8:	7f 93       	push	r23
     6fa:	8f 93       	push	r24
     6fc:	9f 93       	push	r25
     6fe:	af 93       	push	r26
     700:	bf 93       	push	r27
     702:	ef 93       	push	r30
     704:	ff 93       	push	r31
     706:	80 91 e1 00 	lds	r24, 0x00E1	; 0x8000e1 <__TEXT_REGION_LENGTH__+0x7f80e1>
     70a:	82 ff       	sbrs	r24, 2
     70c:	0b c0       	rjmp	.+22     	; 0x724 <__vector_10+0x40>
     70e:	80 91 e2 00 	lds	r24, 0x00E2	; 0x8000e2 <__TEXT_REGION_LENGTH__+0x7f80e2>
     712:	82 ff       	sbrs	r24, 2
     714:	07 c0       	rjmp	.+14     	; 0x724 <__vector_10+0x40>
     716:	80 91 e1 00 	lds	r24, 0x00E1	; 0x8000e1 <__TEXT_REGION_LENGTH__+0x7f80e1>
     71a:	8b 7f       	andi	r24, 0xFB	; 251
     71c:	80 93 e1 00 	sts	0x00E1, r24	; 0x8000e1 <__TEXT_REGION_LENGTH__+0x7f80e1>
     720:	0e 94 e7 05 	call	0xbce	; 0xbce <USB_Event_Stub>
     724:	80 91 da 00 	lds	r24, 0x00DA	; 0x8000da <__TEXT_REGION_LENGTH__+0x7f80da>
     728:	80 ff       	sbrs	r24, 0
     72a:	1f c0       	rjmp	.+62     	; 0x76a <__vector_10+0x86>
     72c:	80 91 d8 00 	lds	r24, 0x00D8	; 0x8000d8 <__TEXT_REGION_LENGTH__+0x7f80d8>
     730:	80 ff       	sbrs	r24, 0
     732:	1b c0       	rjmp	.+54     	; 0x76a <__vector_10+0x86>
     734:	80 91 da 00 	lds	r24, 0x00DA	; 0x8000da <__TEXT_REGION_LENGTH__+0x7f80da>
     738:	8e 7f       	andi	r24, 0xFE	; 254
     73a:	80 93 da 00 	sts	0x00DA, r24	; 0x8000da <__TEXT_REGION_LENGTH__+0x7f80da>
     73e:	80 91 d9 00 	lds	r24, 0x00D9	; 0x8000d9 <__TEXT_REGION_LENGTH__+0x7f80d9>
     742:	80 ff       	sbrs	r24, 0
     744:	0d c0       	rjmp	.+26     	; 0x760 <__vector_10+0x7c>
     746:	80 e1       	ldi	r24, 0x10	; 16
     748:	89 bd       	out	0x29, r24	; 41
     74a:	82 e1       	ldi	r24, 0x12	; 18
     74c:	89 bd       	out	0x29, r24	; 41
     74e:	09 b4       	in	r0, 0x29	; 41
     750:	00 fe       	sbrs	r0, 0
     752:	fd cf       	rjmp	.-6      	; 0x74e <__vector_10+0x6a>
     754:	81 e0       	ldi	r24, 0x01	; 1
     756:	80 93 61 01 	sts	0x0161, r24	; 0x800161 <USB_DeviceState>
     75a:	0e 94 e7 05 	call	0xbce	; 0xbce <USB_Event_Stub>
     75e:	05 c0       	rjmp	.+10     	; 0x76a <__vector_10+0x86>
     760:	19 bc       	out	0x29, r1	; 41
     762:	10 92 61 01 	sts	0x0161, r1	; 0x800161 <USB_DeviceState>
     766:	0e 94 e7 05 	call	0xbce	; 0xbce <USB_Event_Stub>
     76a:	80 91 e1 00 	lds	r24, 0x00E1	; 0x8000e1 <__TEXT_REGION_LENGTH__+0x7f80e1>
     76e:	80 ff       	sbrs	r24, 0
     770:	19 c0       	rjmp	.+50     	; 0x7a4 <__vector_10+0xc0>
     772:	80 91 e2 00 	lds	r24, 0x00E2	; 0x8000e2 <__TEXT_REGION_LENGTH__+0x7f80e2>
     776:	80 ff       	sbrs	r24, 0
     778:	15 c0       	rjmp	.+42     	; 0x7a4 <__vector_10+0xc0>
     77a:	80 91 e2 00 	lds	r24, 0x00E2	; 0x8000e2 <__TEXT_REGION_LENGTH__+0x7f80e2>
     77e:	8e 7f       	andi	r24, 0xFE	; 254
     780:	80 93 e2 00 	sts	0x00E2, r24	; 0x8000e2 <__TEXT_REGION_LENGTH__+0x7f80e2>
     784:	80 91 e2 00 	lds	r24, 0x00E2	; 0x8000e2 <__TEXT_REGION_LENGTH__+0x7f80e2>
     788:	80 61       	ori	r24, 0x10	; 16
     78a:	80 93 e2 00 	sts	0x00E2, r24	; 0x8000e2 <__TEXT_REGION_LENGTH__+0x7f80e2>
     78e:	80 91 d8 00 	lds	r24, 0x00D8	; 0x8000d8 <__TEXT_REGION_LENGTH__+0x7f80d8>
     792:	80 62       	ori	r24, 0x20	; 32
     794:	80 93 d8 00 	sts	0x00D8, r24	; 0x8000d8 <__TEXT_REGION_LENGTH__+0x7f80d8>
     798:	19 bc       	out	0x29, r1	; 41
     79a:	85 e0       	ldi	r24, 0x05	; 5
     79c:	80 93 61 01 	sts	0x0161, r24	; 0x800161 <USB_DeviceState>
     7a0:	0e 94 e7 05 	call	0xbce	; 0xbce <USB_Event_Stub>
     7a4:	80 91 e1 00 	lds	r24, 0x00E1	; 0x8000e1 <__TEXT_REGION_LENGTH__+0x7f80e1>
     7a8:	84 ff       	sbrs	r24, 4
     7aa:	30 c0       	rjmp	.+96     	; 0x80c <__vector_10+0x128>
     7ac:	80 91 e2 00 	lds	r24, 0x00E2	; 0x8000e2 <__TEXT_REGION_LENGTH__+0x7f80e2>
     7b0:	84 ff       	sbrs	r24, 4
     7b2:	2c c0       	rjmp	.+88     	; 0x80c <__vector_10+0x128>
     7b4:	80 e1       	ldi	r24, 0x10	; 16
     7b6:	89 bd       	out	0x29, r24	; 41
     7b8:	82 e1       	ldi	r24, 0x12	; 18
     7ba:	89 bd       	out	0x29, r24	; 41
     7bc:	09 b4       	in	r0, 0x29	; 41
     7be:	00 fe       	sbrs	r0, 0
     7c0:	fd cf       	rjmp	.-6      	; 0x7bc <__vector_10+0xd8>
     7c2:	80 91 d8 00 	lds	r24, 0x00D8	; 0x8000d8 <__TEXT_REGION_LENGTH__+0x7f80d8>
     7c6:	8f 7d       	andi	r24, 0xDF	; 223
     7c8:	80 93 d8 00 	sts	0x00D8, r24	; 0x8000d8 <__TEXT_REGION_LENGTH__+0x7f80d8>
     7cc:	80 91 e1 00 	lds	r24, 0x00E1	; 0x8000e1 <__TEXT_REGION_LENGTH__+0x7f80e1>
     7d0:	8f 7e       	andi	r24, 0xEF	; 239
     7d2:	80 93 e1 00 	sts	0x00E1, r24	; 0x8000e1 <__TEXT_REGION_LENGTH__+0x7f80e1>
     7d6:	80 91 e2 00 	lds	r24, 0x00E2	; 0x8000e2 <__TEXT_REGION_LENGTH__+0x7f80e2>
     7da:	8f 7e       	andi	r24, 0xEF	; 239
     7dc:	80 93 e2 00 	sts	0x00E2, r24	; 0x8000e2 <__TEXT_REGION_LENGTH__+0x7f80e2>
     7e0:	80 91 e2 00 	lds	r24, 0x00E2	; 0x8000e2 <__TEXT_REGION_LENGTH__+0x7f80e2>
     7e4:	81 60       	ori	r24, 0x01	; 1
     7e6:	80 93 e2 00 	sts	0x00E2, r24	; 0x8000e2 <__TEXT_REGION_LENGTH__+0x7f80e2>
     7ea:	80 91 5d 01 	lds	r24, 0x015D	; 0x80015d <USB_Device_ConfigurationNumber>
     7ee:	88 23       	and	r24, r24
     7f0:	11 f0       	breq	.+4      	; 0x7f6 <__vector_10+0x112>
     7f2:	84 e0       	ldi	r24, 0x04	; 4
     7f4:	07 c0       	rjmp	.+14     	; 0x804 <__vector_10+0x120>
     7f6:	80 91 e3 00 	lds	r24, 0x00E3	; 0x8000e3 <__TEXT_REGION_LENGTH__+0x7f80e3>
     7fa:	87 fd       	sbrc	r24, 7
     7fc:	02 c0       	rjmp	.+4      	; 0x802 <__vector_10+0x11e>
     7fe:	81 e0       	ldi	r24, 0x01	; 1
     800:	01 c0       	rjmp	.+2      	; 0x804 <__vector_10+0x120>
     802:	83 e0       	ldi	r24, 0x03	; 3
     804:	80 93 61 01 	sts	0x0161, r24	; 0x800161 <USB_DeviceState>
     808:	0e 94 e7 05 	call	0xbce	; 0xbce <USB_Event_Stub>
     80c:	80 91 e1 00 	lds	r24, 0x00E1	; 0x8000e1 <__TEXT_REGION_LENGTH__+0x7f80e1>
     810:	83 ff       	sbrs	r24, 3
     812:	29 c0       	rjmp	.+82     	; 0x866 <__vector_10+0x182>
     814:	80 91 e2 00 	lds	r24, 0x00E2	; 0x8000e2 <__TEXT_REGION_LENGTH__+0x7f80e2>
     818:	83 ff       	sbrs	r24, 3
     81a:	25 c0       	rjmp	.+74     	; 0x866 <__vector_10+0x182>
     81c:	80 91 e1 00 	lds	r24, 0x00E1	; 0x8000e1 <__TEXT_REGION_LENGTH__+0x7f80e1>
     820:	87 7f       	andi	r24, 0xF7	; 247
     822:	80 93 e1 00 	sts	0x00E1, r24	; 0x8000e1 <__TEXT_REGION_LENGTH__+0x7f80e1>
     826:	82 e0       	ldi	r24, 0x02	; 2
     828:	80 93 61 01 	sts	0x0161, r24	; 0x800161 <USB_DeviceState>
     82c:	10 92 5d 01 	sts	0x015D, r1	; 0x80015d <USB_Device_ConfigurationNumber>
     830:	80 91 e1 00 	lds	r24, 0x00E1	; 0x8000e1 <__TEXT_REGION_LENGTH__+0x7f80e1>
     834:	8e 7f       	andi	r24, 0xFE	; 254
     836:	80 93 e1 00 	sts	0x00E1, r24	; 0x8000e1 <__TEXT_REGION_LENGTH__+0x7f80e1>
     83a:	80 91 e2 00 	lds	r24, 0x00E2	; 0x8000e2 <__TEXT_REGION_LENGTH__+0x7f80e2>
     83e:	8e 7f       	andi	r24, 0xFE	; 254
     840:	80 93 e2 00 	sts	0x00E2, r24	; 0x8000e2 <__TEXT_REGION_LENGTH__+0x7f80e2>
     844:	80 91 e2 00 	lds	r24, 0x00E2	; 0x8000e2 <__TEXT_REGION_LENGTH__+0x7f80e2>
     848:	80 61       	ori	r24, 0x10	; 16
     84a:	80 93 e2 00 	sts	0x00E2, r24	; 0x8000e2 <__TEXT_REGION_LENGTH__+0x7f80e2>
     84e:	42 e0       	ldi	r20, 0x02	; 2
     850:	60 e0       	ldi	r22, 0x00	; 0
     852:	80 e0       	ldi	r24, 0x00	; 0
     854:	0e 94 f5 0f 	call	0x1fea	; 0x1fea <Endpoint_ConfigureEndpoint_Prv>
     858:	80 91 f0 00 	lds	r24, 0x00F0	; 0x8000f0 <__TEXT_REGION_LENGTH__+0x7f80f0>
     85c:	88 60       	ori	r24, 0x08	; 8
     85e:	80 93 f0 00 	sts	0x00F0, r24	; 0x8000f0 <__TEXT_REGION_LENGTH__+0x7f80f0>
     862:	0e 94 e7 05 	call	0xbce	; 0xbce <USB_Event_Stub>
     866:	ff 91       	pop	r31
     868:	ef 91       	pop	r30
     86a:	bf 91       	pop	r27
     86c:	af 91       	pop	r26
     86e:	9f 91       	pop	r25
     870:	8f 91       	pop	r24
     872:	7f 91       	pop	r23
     874:	6f 91       	pop	r22
     876:	5f 91       	pop	r21
     878:	4f 91       	pop	r20
     87a:	3f 91       	pop	r19
     87c:	2f 91       	pop	r18
     87e:	0f 90       	pop	r0
     880:	0f be       	out	0x3f, r0	; 63
     882:	0f 90       	pop	r0
     884:	1f 90       	pop	r1
     886:	18 95       	reti

00000888 <__vector_11>:
     888:	1f 92       	push	r1
     88a:	0f 92       	push	r0
     88c:	0f b6       	in	r0, 0x3f	; 63
     88e:	0f 92       	push	r0
     890:	11 24       	eor	r1, r1
     892:	2f 93       	push	r18
     894:	3f 93       	push	r19
     896:	4f 93       	push	r20
     898:	5f 93       	push	r21
     89a:	6f 93       	push	r22
     89c:	7f 93       	push	r23
     89e:	8f 93       	push	r24
     8a0:	9f 93       	push	r25
     8a2:	af 93       	push	r26
     8a4:	bf 93       	push	r27
     8a6:	cf 93       	push	r28
     8a8:	df 93       	push	r29
     8aa:	ef 93       	push	r30
     8ac:	ff 93       	push	r31
     8ae:	c0 91 e9 00 	lds	r28, 0x00E9	; 0x8000e9 <__TEXT_REGION_LENGTH__+0x7f80e9>
     8b2:	cf 70       	andi	r28, 0x0F	; 15
     8b4:	80 91 ec 00 	lds	r24, 0x00EC	; 0x8000ec <__TEXT_REGION_LENGTH__+0x7f80ec>
     8b8:	d8 2f       	mov	r29, r24
     8ba:	d1 70       	andi	r29, 0x01	; 1
     8bc:	80 fd       	sbrc	r24, 0
     8be:	d0 e8       	ldi	r29, 0x80	; 128
     8c0:	10 92 e9 00 	sts	0x00E9, r1	; 0x8000e9 <__TEXT_REGION_LENGTH__+0x7f80e9>
     8c4:	80 91 f0 00 	lds	r24, 0x00F0	; 0x8000f0 <__TEXT_REGION_LENGTH__+0x7f80f0>
     8c8:	87 7f       	andi	r24, 0xF7	; 247
     8ca:	80 93 f0 00 	sts	0x00F0, r24	; 0x8000f0 <__TEXT_REGION_LENGTH__+0x7f80f0>
     8ce:	78 94       	sei
     8d0:	0e 94 88 04 	call	0x910	; 0x910 <USB_Device_ProcessControlRequest>
     8d4:	10 92 e9 00 	sts	0x00E9, r1	; 0x8000e9 <__TEXT_REGION_LENGTH__+0x7f80e9>
     8d8:	80 91 f0 00 	lds	r24, 0x00F0	; 0x8000f0 <__TEXT_REGION_LENGTH__+0x7f80f0>
     8dc:	88 60       	ori	r24, 0x08	; 8
     8de:	80 93 f0 00 	sts	0x00F0, r24	; 0x8000f0 <__TEXT_REGION_LENGTH__+0x7f80f0>
     8e2:	cd 2b       	or	r28, r29
     8e4:	cf 70       	andi	r28, 0x0F	; 15
     8e6:	c0 93 e9 00 	sts	0x00E9, r28	; 0x8000e9 <__TEXT_REGION_LENGTH__+0x7f80e9>
     8ea:	ff 91       	pop	r31
     8ec:	ef 91       	pop	r30
     8ee:	df 91       	pop	r29
     8f0:	cf 91       	pop	r28
     8f2:	bf 91       	pop	r27
     8f4:	af 91       	pop	r26
     8f6:	9f 91       	pop	r25
     8f8:	8f 91       	pop	r24
     8fa:	7f 91       	pop	r23
     8fc:	6f 91       	pop	r22
     8fe:	5f 91       	pop	r21
     900:	4f 91       	pop	r20
     902:	3f 91       	pop	r19
     904:	2f 91       	pop	r18
     906:	0f 90       	pop	r0
     908:	0f be       	out	0x3f, r0	; 63
     90a:	0f 90       	pop	r0
     90c:	1f 90       	pop	r1
     90e:	18 95       	reti

00000910 <USB_Device_ProcessControlRequest>:
     910:	1f 93       	push	r17
     912:	cf 93       	push	r28
     914:	df 93       	push	r29
     916:	cd b7       	in	r28, 0x3d	; 61
     918:	de b7       	in	r29, 0x3e	; 62
     91a:	aa 97       	sbiw	r28, 0x2a	; 42
     91c:	0f b6       	in	r0, 0x3f	; 63
     91e:	f8 94       	cli
     920:	de bf       	out	0x3e, r29	; 62
     922:	0f be       	out	0x3f, r0	; 63
     924:	cd bf       	out	0x3d, r28	; 61
     926:	e2 e6       	ldi	r30, 0x62	; 98
     928:	f1 e0       	ldi	r31, 0x01	; 1
     92a:	80 91 f1 00 	lds	r24, 0x00F1	; 0x8000f1 <__TEXT_REGION_LENGTH__+0x7f80f1>
     92e:	81 93       	st	Z+, r24
     930:	21 e0       	ldi	r18, 0x01	; 1
     932:	ea 36       	cpi	r30, 0x6A	; 106
     934:	f2 07       	cpc	r31, r18
     936:	c9 f7       	brne	.-14     	; 0x92a <USB_Device_ProcessControlRequest+0x1a>
     938:	0e 94 f3 02 	call	0x5e6	; 0x5e6 <EVENT_USB_Device_ControlRequest>
     93c:	80 91 e8 00 	lds	r24, 0x00E8	; 0x8000e8 <__TEXT_REGION_LENGTH__+0x7f80e8>
     940:	83 ff       	sbrs	r24, 3
     942:	2d c1       	rjmp	.+602    	; 0xb9e <__stack+0x9f>
     944:	80 91 62 01 	lds	r24, 0x0162	; 0x800162 <USB_ControlRequest>
     948:	90 91 63 01 	lds	r25, 0x0163	; 0x800163 <USB_ControlRequest+0x1>
     94c:	95 30       	cpi	r25, 0x05	; 5
     94e:	09 f4       	brne	.+2      	; 0x952 <USB_Device_ProcessControlRequest+0x42>
     950:	78 c0       	rjmp	.+240    	; 0xa42 <__DATA_REGION_LENGTH__+0x42>
     952:	30 f4       	brcc	.+12     	; 0x960 <USB_Device_ProcessControlRequest+0x50>
     954:	91 30       	cpi	r25, 0x01	; 1
     956:	81 f1       	breq	.+96     	; 0x9b8 <USB_Device_ProcessControlRequest+0xa8>
     958:	68 f0       	brcs	.+26     	; 0x974 <USB_Device_ProcessControlRequest+0x64>
     95a:	93 30       	cpi	r25, 0x03	; 3
     95c:	69 f1       	breq	.+90     	; 0x9b8 <USB_Device_ProcessControlRequest+0xa8>
     95e:	1f c1       	rjmp	.+574    	; 0xb9e <__stack+0x9f>
     960:	98 30       	cpi	r25, 0x08	; 8
     962:	09 f4       	brne	.+2      	; 0x966 <USB_Device_ProcessControlRequest+0x56>
     964:	e6 c0       	rjmp	.+460    	; 0xb32 <__stack+0x33>
     966:	99 30       	cpi	r25, 0x09	; 9
     968:	09 f4       	brne	.+2      	; 0x96c <USB_Device_ProcessControlRequest+0x5c>
     96a:	f6 c0       	rjmp	.+492    	; 0xb58 <__stack+0x59>
     96c:	96 30       	cpi	r25, 0x06	; 6
     96e:	09 f0       	breq	.+2      	; 0x972 <USB_Device_ProcessControlRequest+0x62>
     970:	16 c1       	rjmp	.+556    	; 0xb9e <__stack+0x9f>
     972:	8a c0       	rjmp	.+276    	; 0xa88 <__DATA_REGION_LENGTH__+0x88>
     974:	80 38       	cpi	r24, 0x80	; 128
     976:	81 f0       	breq	.+32     	; 0x998 <USB_Device_ProcessControlRequest+0x88>
     978:	82 38       	cpi	r24, 0x82	; 130
     97a:	09 f0       	breq	.+2      	; 0x97e <USB_Device_ProcessControlRequest+0x6e>
     97c:	10 c1       	rjmp	.+544    	; 0xb9e <__stack+0x9f>
     97e:	80 91 66 01 	lds	r24, 0x0166	; 0x800166 <USB_ControlRequest+0x4>
     982:	8f 70       	andi	r24, 0x0F	; 15
     984:	80 93 e9 00 	sts	0x00E9, r24	; 0x8000e9 <__TEXT_REGION_LENGTH__+0x7f80e9>
     988:	80 91 eb 00 	lds	r24, 0x00EB	; 0x8000eb <__TEXT_REGION_LENGTH__+0x7f80eb>
     98c:	85 fb       	bst	r24, 5
     98e:	88 27       	eor	r24, r24
     990:	80 f9       	bld	r24, 0
     992:	10 92 e9 00 	sts	0x00E9, r1	; 0x8000e9 <__TEXT_REGION_LENGTH__+0x7f80e9>
     996:	06 c0       	rjmp	.+12     	; 0x9a4 <USB_Device_ProcessControlRequest+0x94>
     998:	80 91 5e 01 	lds	r24, 0x015E	; 0x80015e <USB_Device_CurrentlySelfPowered>
     99c:	90 91 5f 01 	lds	r25, 0x015F	; 0x80015f <USB_Device_RemoteWakeupEnabled>
     9a0:	91 11       	cpse	r25, r1
     9a2:	82 60       	ori	r24, 0x02	; 2
     9a4:	90 91 e8 00 	lds	r25, 0x00E8	; 0x8000e8 <__TEXT_REGION_LENGTH__+0x7f80e8>
     9a8:	97 7f       	andi	r25, 0xF7	; 247
     9aa:	90 93 e8 00 	sts	0x00E8, r25	; 0x8000e8 <__TEXT_REGION_LENGTH__+0x7f80e8>
     9ae:	80 93 f1 00 	sts	0x00F1, r24	; 0x8000f1 <__TEXT_REGION_LENGTH__+0x7f80f1>
     9b2:	10 92 f1 00 	sts	0x00F1, r1	; 0x8000f1 <__TEXT_REGION_LENGTH__+0x7f80f1>
     9b6:	c8 c0       	rjmp	.+400    	; 0xb48 <__stack+0x49>
     9b8:	28 2f       	mov	r18, r24
     9ba:	2d 7f       	andi	r18, 0xFD	; 253
     9bc:	09 f0       	breq	.+2      	; 0x9c0 <USB_Device_ProcessControlRequest+0xb0>
     9be:	ef c0       	rjmp	.+478    	; 0xb9e <__stack+0x9f>
     9c0:	88 23       	and	r24, r24
     9c2:	19 f0       	breq	.+6      	; 0x9ca <USB_Device_ProcessControlRequest+0xba>
     9c4:	82 30       	cpi	r24, 0x02	; 2
     9c6:	61 f0       	breq	.+24     	; 0x9e0 <USB_Device_ProcessControlRequest+0xd0>
     9c8:	ea c0       	rjmp	.+468    	; 0xb9e <__stack+0x9f>
     9ca:	80 91 64 01 	lds	r24, 0x0164	; 0x800164 <USB_ControlRequest+0x2>
     9ce:	81 30       	cpi	r24, 0x01	; 1
     9d0:	09 f0       	breq	.+2      	; 0x9d4 <USB_Device_ProcessControlRequest+0xc4>
     9d2:	e5 c0       	rjmp	.+458    	; 0xb9e <__stack+0x9f>
     9d4:	93 30       	cpi	r25, 0x03	; 3
     9d6:	09 f0       	breq	.+2      	; 0x9da <USB_Device_ProcessControlRequest+0xca>
     9d8:	80 e0       	ldi	r24, 0x00	; 0
     9da:	80 93 5f 01 	sts	0x015F, r24	; 0x80015f <USB_Device_RemoteWakeupEnabled>
     9de:	2b c0       	rjmp	.+86     	; 0xa36 <__DATA_REGION_LENGTH__+0x36>
     9e0:	80 91 64 01 	lds	r24, 0x0164	; 0x800164 <USB_ControlRequest+0x2>
     9e4:	81 11       	cpse	r24, r1
     9e6:	27 c0       	rjmp	.+78     	; 0xa36 <__DATA_REGION_LENGTH__+0x36>
     9e8:	80 91 66 01 	lds	r24, 0x0166	; 0x800166 <USB_ControlRequest+0x4>
     9ec:	8f 70       	andi	r24, 0x0F	; 15
     9ee:	09 f4       	brne	.+2      	; 0x9f2 <USB_Device_ProcessControlRequest+0xe2>
     9f0:	d6 c0       	rjmp	.+428    	; 0xb9e <__stack+0x9f>
     9f2:	80 93 e9 00 	sts	0x00E9, r24	; 0x8000e9 <__TEXT_REGION_LENGTH__+0x7f80e9>
     9f6:	20 91 eb 00 	lds	r18, 0x00EB	; 0x8000eb <__TEXT_REGION_LENGTH__+0x7f80eb>
     9fa:	20 ff       	sbrs	r18, 0
     9fc:	1c c0       	rjmp	.+56     	; 0xa36 <__DATA_REGION_LENGTH__+0x36>
     9fe:	93 30       	cpi	r25, 0x03	; 3
     a00:	21 f4       	brne	.+8      	; 0xa0a <__DATA_REGION_LENGTH__+0xa>
     a02:	80 91 eb 00 	lds	r24, 0x00EB	; 0x8000eb <__TEXT_REGION_LENGTH__+0x7f80eb>
     a06:	80 62       	ori	r24, 0x20	; 32
     a08:	14 c0       	rjmp	.+40     	; 0xa32 <__DATA_REGION_LENGTH__+0x32>
     a0a:	90 91 eb 00 	lds	r25, 0x00EB	; 0x8000eb <__TEXT_REGION_LENGTH__+0x7f80eb>
     a0e:	90 61       	ori	r25, 0x10	; 16
     a10:	90 93 eb 00 	sts	0x00EB, r25	; 0x8000eb <__TEXT_REGION_LENGTH__+0x7f80eb>
     a14:	21 e0       	ldi	r18, 0x01	; 1
     a16:	30 e0       	ldi	r19, 0x00	; 0
     a18:	a9 01       	movw	r20, r18
     a1a:	02 c0       	rjmp	.+4      	; 0xa20 <__DATA_REGION_LENGTH__+0x20>
     a1c:	44 0f       	add	r20, r20
     a1e:	55 1f       	adc	r21, r21
     a20:	8a 95       	dec	r24
     a22:	e2 f7       	brpl	.-8      	; 0xa1c <__DATA_REGION_LENGTH__+0x1c>
     a24:	40 93 ea 00 	sts	0x00EA, r20	; 0x8000ea <__TEXT_REGION_LENGTH__+0x7f80ea>
     a28:	10 92 ea 00 	sts	0x00EA, r1	; 0x8000ea <__TEXT_REGION_LENGTH__+0x7f80ea>
     a2c:	80 91 eb 00 	lds	r24, 0x00EB	; 0x8000eb <__TEXT_REGION_LENGTH__+0x7f80eb>
     a30:	88 60       	ori	r24, 0x08	; 8
     a32:	80 93 eb 00 	sts	0x00EB, r24	; 0x8000eb <__TEXT_REGION_LENGTH__+0x7f80eb>
     a36:	10 92 e9 00 	sts	0x00E9, r1	; 0x8000e9 <__TEXT_REGION_LENGTH__+0x7f80e9>
     a3a:	80 91 e8 00 	lds	r24, 0x00E8	; 0x8000e8 <__TEXT_REGION_LENGTH__+0x7f80e8>
     a3e:	87 7f       	andi	r24, 0xF7	; 247
     a40:	86 c0       	rjmp	.+268    	; 0xb4e <__stack+0x4f>
     a42:	81 11       	cpse	r24, r1
     a44:	ac c0       	rjmp	.+344    	; 0xb9e <__stack+0x9f>
     a46:	10 91 64 01 	lds	r17, 0x0164	; 0x800164 <USB_ControlRequest+0x2>
     a4a:	1f 77       	andi	r17, 0x7F	; 127
     a4c:	80 91 e3 00 	lds	r24, 0x00E3	; 0x8000e3 <__TEXT_REGION_LENGTH__+0x7f80e3>
     a50:	80 78       	andi	r24, 0x80	; 128
     a52:	81 2b       	or	r24, r17
     a54:	80 93 e3 00 	sts	0x00E3, r24	; 0x8000e3 <__TEXT_REGION_LENGTH__+0x7f80e3>
     a58:	80 91 e8 00 	lds	r24, 0x00E8	; 0x8000e8 <__TEXT_REGION_LENGTH__+0x7f80e8>
     a5c:	87 7f       	andi	r24, 0xF7	; 247
     a5e:	80 93 e8 00 	sts	0x00E8, r24	; 0x8000e8 <__TEXT_REGION_LENGTH__+0x7f80e8>
     a62:	0e 94 7c 10 	call	0x20f8	; 0x20f8 <Endpoint_ClearStatusStage>
     a66:	80 91 e8 00 	lds	r24, 0x00E8	; 0x8000e8 <__TEXT_REGION_LENGTH__+0x7f80e8>
     a6a:	80 ff       	sbrs	r24, 0
     a6c:	fc cf       	rjmp	.-8      	; 0xa66 <__DATA_REGION_LENGTH__+0x66>
     a6e:	80 91 e3 00 	lds	r24, 0x00E3	; 0x8000e3 <__TEXT_REGION_LENGTH__+0x7f80e3>
     a72:	80 68       	ori	r24, 0x80	; 128
     a74:	80 93 e3 00 	sts	0x00E3, r24	; 0x8000e3 <__TEXT_REGION_LENGTH__+0x7f80e3>
     a78:	11 11       	cpse	r17, r1
     a7a:	02 c0       	rjmp	.+4      	; 0xa80 <__DATA_REGION_LENGTH__+0x80>
     a7c:	82 e0       	ldi	r24, 0x02	; 2
     a7e:	01 c0       	rjmp	.+2      	; 0xa82 <__DATA_REGION_LENGTH__+0x82>
     a80:	83 e0       	ldi	r24, 0x03	; 3
     a82:	80 93 61 01 	sts	0x0161, r24	; 0x800161 <USB_DeviceState>
     a86:	8b c0       	rjmp	.+278    	; 0xb9e <__stack+0x9f>
     a88:	80 58       	subi	r24, 0x80	; 128
     a8a:	82 30       	cpi	r24, 0x02	; 2
     a8c:	08 f0       	brcs	.+2      	; 0xa90 <__DATA_REGION_LENGTH__+0x90>
     a8e:	87 c0       	rjmp	.+270    	; 0xb9e <__stack+0x9f>
     a90:	80 91 64 01 	lds	r24, 0x0164	; 0x800164 <USB_ControlRequest+0x2>
     a94:	90 91 65 01 	lds	r25, 0x0165	; 0x800165 <USB_ControlRequest+0x3>
     a98:	8c 3d       	cpi	r24, 0xDC	; 220
     a9a:	53 e0       	ldi	r21, 0x03	; 3
     a9c:	95 07       	cpc	r25, r21
     a9e:	79 f5       	brne	.+94     	; 0xafe <__DATA_REGION_LENGTH__+0xfe>
     aa0:	83 e0       	ldi	r24, 0x03	; 3
     aa2:	8a 83       	std	Y+2, r24	; 0x02
     aa4:	8a e2       	ldi	r24, 0x2A	; 42
     aa6:	89 83       	std	Y+1, r24	; 0x01
     aa8:	4f b7       	in	r20, 0x3f	; 63
     aaa:	f8 94       	cli
     aac:	de 01       	movw	r26, r28
     aae:	13 96       	adiw	r26, 0x03	; 3
     ab0:	20 e0       	ldi	r18, 0x00	; 0
     ab2:	3e e0       	ldi	r19, 0x0E	; 14
     ab4:	51 e2       	ldi	r21, 0x21	; 33
     ab6:	e3 2f       	mov	r30, r19
     ab8:	f0 e0       	ldi	r31, 0x00	; 0
     aba:	50 93 57 00 	sts	0x0057, r21	; 0x800057 <__TEXT_REGION_LENGTH__+0x7f8057>
     abe:	e4 91       	lpm	r30, Z
     ac0:	20 ff       	sbrs	r18, 0
     ac2:	03 c0       	rjmp	.+6      	; 0xaca <__DATA_REGION_LENGTH__+0xca>
     ac4:	e2 95       	swap	r30
     ac6:	ef 70       	andi	r30, 0x0F	; 15
     ac8:	3f 5f       	subi	r19, 0xFF	; 255
     aca:	ef 70       	andi	r30, 0x0F	; 15
     acc:	8e 2f       	mov	r24, r30
     ace:	90 e0       	ldi	r25, 0x00	; 0
     ad0:	ea 30       	cpi	r30, 0x0A	; 10
     ad2:	10 f0       	brcs	.+4      	; 0xad8 <__DATA_REGION_LENGTH__+0xd8>
     ad4:	c7 96       	adiw	r24, 0x37	; 55
     ad6:	01 c0       	rjmp	.+2      	; 0xada <__DATA_REGION_LENGTH__+0xda>
     ad8:	c0 96       	adiw	r24, 0x30	; 48
     ada:	8d 93       	st	X+, r24
     adc:	9d 93       	st	X+, r25
     ade:	2f 5f       	subi	r18, 0xFF	; 255
     ae0:	24 31       	cpi	r18, 0x14	; 20
     ae2:	49 f7       	brne	.-46     	; 0xab6 <__DATA_REGION_LENGTH__+0xb6>
     ae4:	4f bf       	out	0x3f, r20	; 63
     ae6:	80 91 e8 00 	lds	r24, 0x00E8	; 0x8000e8 <__TEXT_REGION_LENGTH__+0x7f80e8>
     aea:	87 7f       	andi	r24, 0xF7	; 247
     aec:	80 93 e8 00 	sts	0x00E8, r24	; 0x8000e8 <__TEXT_REGION_LENGTH__+0x7f80e8>
     af0:	6a e2       	ldi	r22, 0x2A	; 42
     af2:	70 e0       	ldi	r23, 0x00	; 0
     af4:	ce 01       	movw	r24, r28
     af6:	01 96       	adiw	r24, 0x01	; 1
     af8:	0e 94 59 0c 	call	0x18b2	; 0x18b2 <Endpoint_Write_Control_Stream_LE>
     afc:	14 c0       	rjmp	.+40     	; 0xb26 <__stack+0x27>
     afe:	ae 01       	movw	r20, r28
     b00:	4f 5f       	subi	r20, 0xFF	; 255
     b02:	5f 4f       	sbci	r21, 0xFF	; 255
     b04:	60 91 66 01 	lds	r22, 0x0166	; 0x800166 <USB_ControlRequest+0x4>
     b08:	0e 94 93 08 	call	0x1126	; 0x1126 <CALLBACK_USB_GetDescriptor>
     b0c:	bc 01       	movw	r22, r24
     b0e:	89 2b       	or	r24, r25
     b10:	09 f4       	brne	.+2      	; 0xb14 <__stack+0x15>
     b12:	45 c0       	rjmp	.+138    	; 0xb9e <__stack+0x9f>
     b14:	90 91 e8 00 	lds	r25, 0x00E8	; 0x8000e8 <__TEXT_REGION_LENGTH__+0x7f80e8>
     b18:	97 7f       	andi	r25, 0xF7	; 247
     b1a:	90 93 e8 00 	sts	0x00E8, r25	; 0x8000e8 <__TEXT_REGION_LENGTH__+0x7f80e8>
     b1e:	89 81       	ldd	r24, Y+1	; 0x01
     b20:	9a 81       	ldd	r25, Y+2	; 0x02
     b22:	0e 94 a0 0d 	call	0x1b40	; 0x1b40 <Endpoint_Write_Control_PStream_LE>
     b26:	80 91 e8 00 	lds	r24, 0x00E8	; 0x8000e8 <__TEXT_REGION_LENGTH__+0x7f80e8>
     b2a:	8b 77       	andi	r24, 0x7B	; 123
     b2c:	80 93 e8 00 	sts	0x00E8, r24	; 0x8000e8 <__TEXT_REGION_LENGTH__+0x7f80e8>
     b30:	36 c0       	rjmp	.+108    	; 0xb9e <__stack+0x9f>
     b32:	80 38       	cpi	r24, 0x80	; 128
     b34:	a1 f5       	brne	.+104    	; 0xb9e <__stack+0x9f>
     b36:	80 91 e8 00 	lds	r24, 0x00E8	; 0x8000e8 <__TEXT_REGION_LENGTH__+0x7f80e8>
     b3a:	87 7f       	andi	r24, 0xF7	; 247
     b3c:	80 93 e8 00 	sts	0x00E8, r24	; 0x8000e8 <__TEXT_REGION_LENGTH__+0x7f80e8>
     b40:	80 91 5d 01 	lds	r24, 0x015D	; 0x80015d <USB_Device_ConfigurationNumber>
     b44:	80 93 f1 00 	sts	0x00F1, r24	; 0x8000f1 <__TEXT_REGION_LENGTH__+0x7f80f1>
     b48:	80 91 e8 00 	lds	r24, 0x00E8	; 0x8000e8 <__TEXT_REGION_LENGTH__+0x7f80e8>
     b4c:	8e 77       	andi	r24, 0x7E	; 126
     b4e:	80 93 e8 00 	sts	0x00E8, r24	; 0x8000e8 <__TEXT_REGION_LENGTH__+0x7f80e8>
     b52:	0e 94 7c 10 	call	0x20f8	; 0x20f8 <Endpoint_ClearStatusStage>
     b56:	23 c0       	rjmp	.+70     	; 0xb9e <__stack+0x9f>
     b58:	81 11       	cpse	r24, r1
     b5a:	21 c0       	rjmp	.+66     	; 0xb9e <__stack+0x9f>
     b5c:	80 91 64 01 	lds	r24, 0x0164	; 0x800164 <USB_ControlRequest+0x2>
     b60:	90 91 65 01 	lds	r25, 0x0165	; 0x800165 <USB_ControlRequest+0x3>
     b64:	99 27       	eor	r25, r25
     b66:	02 97       	sbiw	r24, 0x02	; 2
     b68:	d4 f4       	brge	.+52     	; 0xb9e <__stack+0x9f>
     b6a:	80 91 e8 00 	lds	r24, 0x00E8	; 0x8000e8 <__TEXT_REGION_LENGTH__+0x7f80e8>
     b6e:	87 7f       	andi	r24, 0xF7	; 247
     b70:	80 93 e8 00 	sts	0x00E8, r24	; 0x8000e8 <__TEXT_REGION_LENGTH__+0x7f80e8>
     b74:	80 91 64 01 	lds	r24, 0x0164	; 0x800164 <USB_ControlRequest+0x2>
     b78:	80 93 5d 01 	sts	0x015D, r24	; 0x80015d <USB_Device_ConfigurationNumber>
     b7c:	0e 94 7c 10 	call	0x20f8	; 0x20f8 <Endpoint_ClearStatusStage>
     b80:	80 91 5d 01 	lds	r24, 0x015D	; 0x80015d <USB_Device_ConfigurationNumber>
     b84:	81 11       	cpse	r24, r1
     b86:	06 c0       	rjmp	.+12     	; 0xb94 <__stack+0x95>
     b88:	80 91 e3 00 	lds	r24, 0x00E3	; 0x8000e3 <__TEXT_REGION_LENGTH__+0x7f80e3>
     b8c:	87 fd       	sbrc	r24, 7
     b8e:	02 c0       	rjmp	.+4      	; 0xb94 <__stack+0x95>
     b90:	81 e0       	ldi	r24, 0x01	; 1
     b92:	01 c0       	rjmp	.+2      	; 0xb96 <__stack+0x97>
     b94:	84 e0       	ldi	r24, 0x04	; 4
     b96:	80 93 61 01 	sts	0x0161, r24	; 0x800161 <USB_DeviceState>
     b9a:	0e 94 e5 02 	call	0x5ca	; 0x5ca <EVENT_USB_Device_ConfigurationChanged>
     b9e:	80 91 e8 00 	lds	r24, 0x00E8	; 0x8000e8 <__TEXT_REGION_LENGTH__+0x7f80e8>
     ba2:	83 ff       	sbrs	r24, 3
     ba4:	0a c0       	rjmp	.+20     	; 0xbba <__stack+0xbb>
     ba6:	80 91 e8 00 	lds	r24, 0x00E8	; 0x8000e8 <__TEXT_REGION_LENGTH__+0x7f80e8>
     baa:	87 7f       	andi	r24, 0xF7	; 247
     bac:	80 93 e8 00 	sts	0x00E8, r24	; 0x8000e8 <__TEXT_REGION_LENGTH__+0x7f80e8>
     bb0:	80 91 eb 00 	lds	r24, 0x00EB	; 0x8000eb <__TEXT_REGION_LENGTH__+0x7f80eb>
     bb4:	80 62       	ori	r24, 0x20	; 32
     bb6:	80 93 eb 00 	sts	0x00EB, r24	; 0x8000eb <__TEXT_REGION_LENGTH__+0x7f80eb>
     bba:	aa 96       	adiw	r28, 0x2a	; 42
     bbc:	0f b6       	in	r0, 0x3f	; 63
     bbe:	f8 94       	cli
     bc0:	de bf       	out	0x3e, r29	; 62
     bc2:	0f be       	out	0x3f, r0	; 63
     bc4:	cd bf       	out	0x3d, r28	; 61
     bc6:	df 91       	pop	r29
     bc8:	cf 91       	pop	r28
     bca:	1f 91       	pop	r17
     bcc:	08 95       	ret

00000bce <USB_Event_Stub>:
     bce:	08 95       	ret

00000bd0 <USB_USBTask>:
     bd0:	cf 93       	push	r28
     bd2:	80 91 61 01 	lds	r24, 0x0161	; 0x800161 <USB_DeviceState>
     bd6:	88 23       	and	r24, r24
     bd8:	a1 f0       	breq	.+40     	; 0xc02 <USB_USBTask+0x32>
     bda:	c0 91 e9 00 	lds	r28, 0x00E9	; 0x8000e9 <__TEXT_REGION_LENGTH__+0x7f80e9>
     bde:	cf 70       	andi	r28, 0x0F	; 15
     be0:	90 91 ec 00 	lds	r25, 0x00EC	; 0x8000ec <__TEXT_REGION_LENGTH__+0x7f80ec>
     be4:	89 2f       	mov	r24, r25
     be6:	81 70       	andi	r24, 0x01	; 1
     be8:	90 fd       	sbrc	r25, 0
     bea:	80 e8       	ldi	r24, 0x80	; 128
     bec:	c8 2b       	or	r28, r24
     bee:	10 92 e9 00 	sts	0x00E9, r1	; 0x8000e9 <__TEXT_REGION_LENGTH__+0x7f80e9>
     bf2:	80 91 e8 00 	lds	r24, 0x00E8	; 0x8000e8 <__TEXT_REGION_LENGTH__+0x7f80e8>
     bf6:	83 fd       	sbrc	r24, 3
     bf8:	0e 94 88 04 	call	0x910	; 0x910 <USB_Device_ProcessControlRequest>
     bfc:	cf 70       	andi	r28, 0x0F	; 15
     bfe:	c0 93 e9 00 	sts	0x00E9, r28	; 0x8000e9 <__TEXT_REGION_LENGTH__+0x7f80e9>
     c02:	cf 91       	pop	r28
     c04:	08 95       	ret

00000c06 <CDC_Device_ConfigureEndpoints>:
     c06:	cf 93       	push	r28
     c08:	df 93       	push	r29
     c0a:	ec 01       	movw	r28, r24
     c0c:	fc 01       	movw	r30, r24
     c0e:	70 96       	adiw	r30, 0x10	; 16
     c10:	8b e0       	ldi	r24, 0x0B	; 11
     c12:	df 01       	movw	r26, r30
     c14:	1d 92       	st	X+, r1
     c16:	8a 95       	dec	r24
     c18:	e9 f7       	brne	.-6      	; 0xc14 <CDC_Device_ConfigureEndpoints+0xe>
     c1a:	82 e0       	ldi	r24, 0x02	; 2
     c1c:	8c 83       	std	Y+4, r24	; 0x04
     c1e:	89 87       	std	Y+9, r24	; 0x09
     c20:	83 e0       	ldi	r24, 0x03	; 3
     c22:	8e 87       	std	Y+14, r24	; 0x0e
     c24:	61 e0       	ldi	r22, 0x01	; 1
     c26:	ce 01       	movw	r24, r28
     c28:	01 96       	adiw	r24, 0x01	; 1
     c2a:	0e 94 2a 10 	call	0x2054	; 0x2054 <Endpoint_ConfigureEndpointTable>
     c2e:	88 23       	and	r24, r24
     c30:	71 f0       	breq	.+28     	; 0xc4e <CDC_Device_ConfigureEndpoints+0x48>
     c32:	61 e0       	ldi	r22, 0x01	; 1
     c34:	ce 01       	movw	r24, r28
     c36:	06 96       	adiw	r24, 0x06	; 6
     c38:	0e 94 2a 10 	call	0x2054	; 0x2054 <Endpoint_ConfigureEndpointTable>
     c3c:	88 23       	and	r24, r24
     c3e:	39 f0       	breq	.+14     	; 0xc4e <CDC_Device_ConfigureEndpoints+0x48>
     c40:	61 e0       	ldi	r22, 0x01	; 1
     c42:	ce 01       	movw	r24, r28
     c44:	0b 96       	adiw	r24, 0x0b	; 11
     c46:	df 91       	pop	r29
     c48:	cf 91       	pop	r28
     c4a:	0c 94 2a 10 	jmp	0x2054	; 0x2054 <Endpoint_ConfigureEndpointTable>
     c4e:	80 e0       	ldi	r24, 0x00	; 0
     c50:	df 91       	pop	r29
     c52:	cf 91       	pop	r28
     c54:	08 95       	ret

00000c56 <CDC_Device_SendString>:
     c56:	db 01       	movw	r26, r22
     c58:	20 91 61 01 	lds	r18, 0x0161	; 0x800161 <USB_DeviceState>
     c5c:	24 30       	cpi	r18, 0x04	; 4
     c5e:	d1 f4       	brne	.+52     	; 0xc94 <CDC_Device_SendString+0x3e>
     c60:	fc 01       	movw	r30, r24
     c62:	44 89       	ldd	r20, Z+20	; 0x14
     c64:	55 89       	ldd	r21, Z+21	; 0x15
     c66:	66 89       	ldd	r22, Z+22	; 0x16
     c68:	77 89       	ldd	r23, Z+23	; 0x17
     c6a:	45 2b       	or	r20, r21
     c6c:	46 2b       	or	r20, r22
     c6e:	47 2b       	or	r20, r23
     c70:	89 f0       	breq	.+34     	; 0xc94 <CDC_Device_SendString+0x3e>
     c72:	81 81       	ldd	r24, Z+1	; 0x01
     c74:	8f 70       	andi	r24, 0x0F	; 15
     c76:	80 93 e9 00 	sts	0x00E9, r24	; 0x8000e9 <__TEXT_REGION_LENGTH__+0x7f80e9>
     c7a:	fd 01       	movw	r30, r26
     c7c:	01 90       	ld	r0, Z+
     c7e:	00 20       	and	r0, r0
     c80:	e9 f7       	brne	.-6      	; 0xc7c <CDC_Device_SendString+0x26>
     c82:	31 97       	sbiw	r30, 0x01	; 1
     c84:	bf 01       	movw	r22, r30
     c86:	6a 1b       	sub	r22, r26
     c88:	7b 0b       	sbc	r23, r27
     c8a:	40 e0       	ldi	r20, 0x00	; 0
     c8c:	50 e0       	ldi	r21, 0x00	; 0
     c8e:	cd 01       	movw	r24, r26
     c90:	0c 94 45 09 	jmp	0x128a	; 0x128a <Endpoint_Write_Stream_LE>
     c94:	82 e0       	ldi	r24, 0x02	; 2
     c96:	08 95       	ret

00000c98 <CDC_Device_SendData>:
     c98:	fc 01       	movw	r30, r24
     c9a:	9b 01       	movw	r18, r22
     c9c:	ba 01       	movw	r22, r20
     c9e:	80 91 61 01 	lds	r24, 0x0161	; 0x800161 <USB_DeviceState>
     ca2:	84 30       	cpi	r24, 0x04	; 4
     ca4:	89 f4       	brne	.+34     	; 0xcc8 <CDC_Device_SendData+0x30>
     ca6:	84 89       	ldd	r24, Z+20	; 0x14
     ca8:	95 89       	ldd	r25, Z+21	; 0x15
     caa:	a6 89       	ldd	r26, Z+22	; 0x16
     cac:	b7 89       	ldd	r27, Z+23	; 0x17
     cae:	89 2b       	or	r24, r25
     cb0:	8a 2b       	or	r24, r26
     cb2:	8b 2b       	or	r24, r27
     cb4:	49 f0       	breq	.+18     	; 0xcc8 <CDC_Device_SendData+0x30>
     cb6:	91 81       	ldd	r25, Z+1	; 0x01
     cb8:	9f 70       	andi	r25, 0x0F	; 15
     cba:	90 93 e9 00 	sts	0x00E9, r25	; 0x8000e9 <__TEXT_REGION_LENGTH__+0x7f80e9>
     cbe:	40 e0       	ldi	r20, 0x00	; 0
     cc0:	50 e0       	ldi	r21, 0x00	; 0
     cc2:	c9 01       	movw	r24, r18
     cc4:	0c 94 45 09 	jmp	0x128a	; 0x128a <Endpoint_Write_Stream_LE>
     cc8:	82 e0       	ldi	r24, 0x02	; 2
     cca:	08 95       	ret

00000ccc <CDC_Device_SendByte>:
     ccc:	0f 93       	push	r16
     cce:	1f 93       	push	r17
     cd0:	cf 93       	push	r28
     cd2:	20 91 61 01 	lds	r18, 0x0161	; 0x800161 <USB_DeviceState>
     cd6:	24 30       	cpi	r18, 0x04	; 4
     cd8:	01 f5       	brne	.+64     	; 0xd1a <CDC_Device_SendByte+0x4e>
     cda:	fc 01       	movw	r30, r24
     cdc:	04 89       	ldd	r16, Z+20	; 0x14
     cde:	15 89       	ldd	r17, Z+21	; 0x15
     ce0:	26 89       	ldd	r18, Z+22	; 0x16
     ce2:	37 89       	ldd	r19, Z+23	; 0x17
     ce4:	01 2b       	or	r16, r17
     ce6:	02 2b       	or	r16, r18
     ce8:	03 2b       	or	r16, r19
     cea:	b9 f0       	breq	.+46     	; 0xd1a <CDC_Device_SendByte+0x4e>
     cec:	c6 2f       	mov	r28, r22
     cee:	81 81       	ldd	r24, Z+1	; 0x01
     cf0:	8f 70       	andi	r24, 0x0F	; 15
     cf2:	80 93 e9 00 	sts	0x00E9, r24	; 0x8000e9 <__TEXT_REGION_LENGTH__+0x7f80e9>
     cf6:	80 91 e8 00 	lds	r24, 0x00E8	; 0x8000e8 <__TEXT_REGION_LENGTH__+0x7f80e8>
     cfa:	85 ff       	sbrs	r24, 5
     cfc:	04 c0       	rjmp	.+8      	; 0xd06 <CDC_Device_SendByte+0x3a>
     cfe:	c0 93 f1 00 	sts	0x00F1, r28	; 0x8000f1 <__TEXT_REGION_LENGTH__+0x7f80f1>
     d02:	80 e0       	ldi	r24, 0x00	; 0
     d04:	0b c0       	rjmp	.+22     	; 0xd1c <CDC_Device_SendByte+0x50>
     d06:	80 91 e8 00 	lds	r24, 0x00E8	; 0x8000e8 <__TEXT_REGION_LENGTH__+0x7f80e8>
     d0a:	8e 77       	andi	r24, 0x7E	; 126
     d0c:	80 93 e8 00 	sts	0x00E8, r24	; 0x8000e8 <__TEXT_REGION_LENGTH__+0x7f80e8>
     d10:	0e 94 9b 10 	call	0x2136	; 0x2136 <Endpoint_WaitUntilReady>
     d14:	88 23       	and	r24, r24
     d16:	99 f3       	breq	.-26     	; 0xcfe <CDC_Device_SendByte+0x32>
     d18:	01 c0       	rjmp	.+2      	; 0xd1c <CDC_Device_SendByte+0x50>
     d1a:	82 e0       	ldi	r24, 0x02	; 2
     d1c:	cf 91       	pop	r28
     d1e:	1f 91       	pop	r17
     d20:	0f 91       	pop	r16
     d22:	08 95       	ret

00000d24 <CDC_Device_putchar>:
     d24:	fb 01       	movw	r30, r22
     d26:	68 2f       	mov	r22, r24
     d28:	84 85       	ldd	r24, Z+12	; 0x0c
     d2a:	95 85       	ldd	r25, Z+13	; 0x0d
     d2c:	0e 94 66 06 	call	0xccc	; 0xccc <CDC_Device_SendByte>
     d30:	21 e0       	ldi	r18, 0x01	; 1
     d32:	30 e0       	ldi	r19, 0x00	; 0
     d34:	81 11       	cpse	r24, r1
     d36:	02 c0       	rjmp	.+4      	; 0xd3c <CDC_Device_putchar+0x18>
     d38:	20 e0       	ldi	r18, 0x00	; 0
     d3a:	30 e0       	ldi	r19, 0x00	; 0
     d3c:	88 27       	eor	r24, r24
     d3e:	99 27       	eor	r25, r25
     d40:	82 1b       	sub	r24, r18
     d42:	93 0b       	sbc	r25, r19
     d44:	08 95       	ret

00000d46 <CDC_Device_Flush>:
     d46:	20 91 61 01 	lds	r18, 0x0161	; 0x800161 <USB_DeviceState>
     d4a:	24 30       	cpi	r18, 0x04	; 4
     d4c:	49 f5       	brne	.+82     	; 0xda0 <CDC_Device_Flush+0x5a>
     d4e:	fc 01       	movw	r30, r24
     d50:	44 89       	ldd	r20, Z+20	; 0x14
     d52:	55 89       	ldd	r21, Z+21	; 0x15
     d54:	66 89       	ldd	r22, Z+22	; 0x16
     d56:	77 89       	ldd	r23, Z+23	; 0x17
     d58:	45 2b       	or	r20, r21
     d5a:	46 2b       	or	r20, r22
     d5c:	47 2b       	or	r20, r23
     d5e:	01 f1       	breq	.+64     	; 0xda0 <CDC_Device_Flush+0x5a>
     d60:	81 81       	ldd	r24, Z+1	; 0x01
     d62:	8f 70       	andi	r24, 0x0F	; 15
     d64:	80 93 e9 00 	sts	0x00E9, r24	; 0x8000e9 <__TEXT_REGION_LENGTH__+0x7f80e9>
     d68:	20 91 f3 00 	lds	r18, 0x00F3	; 0x8000f3 <__TEXT_REGION_LENGTH__+0x7f80f3>
     d6c:	80 91 f2 00 	lds	r24, 0x00F2	; 0x8000f2 <__TEXT_REGION_LENGTH__+0x7f80f2>
     d70:	90 e0       	ldi	r25, 0x00	; 0
     d72:	92 2b       	or	r25, r18
     d74:	89 2b       	or	r24, r25
     d76:	91 f0       	breq	.+36     	; 0xd9c <CDC_Device_Flush+0x56>
     d78:	90 91 e8 00 	lds	r25, 0x00E8	; 0x8000e8 <__TEXT_REGION_LENGTH__+0x7f80e8>
     d7c:	80 91 e8 00 	lds	r24, 0x00E8	; 0x8000e8 <__TEXT_REGION_LENGTH__+0x7f80e8>
     d80:	8e 77       	andi	r24, 0x7E	; 126
     d82:	80 93 e8 00 	sts	0x00E8, r24	; 0x8000e8 <__TEXT_REGION_LENGTH__+0x7f80e8>
     d86:	95 fd       	sbrc	r25, 5
     d88:	09 c0       	rjmp	.+18     	; 0xd9c <CDC_Device_Flush+0x56>
     d8a:	0e 94 9b 10 	call	0x2136	; 0x2136 <Endpoint_WaitUntilReady>
     d8e:	81 11       	cpse	r24, r1
     d90:	08 c0       	rjmp	.+16     	; 0xda2 <CDC_Device_Flush+0x5c>
     d92:	80 91 e8 00 	lds	r24, 0x00E8	; 0x8000e8 <__TEXT_REGION_LENGTH__+0x7f80e8>
     d96:	8e 77       	andi	r24, 0x7E	; 126
     d98:	80 93 e8 00 	sts	0x00E8, r24	; 0x8000e8 <__TEXT_REGION_LENGTH__+0x7f80e8>
     d9c:	80 e0       	ldi	r24, 0x00	; 0
     d9e:	08 95       	ret
     da0:	82 e0       	ldi	r24, 0x02	; 2
     da2:	08 95       	ret

00000da4 <CDC_Device_USBTask>:
     da4:	20 91 61 01 	lds	r18, 0x0161	; 0x800161 <USB_DeviceState>
     da8:	24 30       	cpi	r18, 0x04	; 4
     daa:	91 f4       	brne	.+36     	; 0xdd0 <CDC_Device_USBTask+0x2c>
     dac:	fc 01       	movw	r30, r24
     dae:	44 89       	ldd	r20, Z+20	; 0x14
     db0:	55 89       	ldd	r21, Z+21	; 0x15
     db2:	66 89       	ldd	r22, Z+22	; 0x16
     db4:	77 89       	ldd	r23, Z+23	; 0x17
     db6:	45 2b       	or	r20, r21
     db8:	46 2b       	or	r20, r22
     dba:	47 2b       	or	r20, r23
     dbc:	49 f0       	breq	.+18     	; 0xdd0 <CDC_Device_USBTask+0x2c>
     dbe:	21 81       	ldd	r18, Z+1	; 0x01
     dc0:	2f 70       	andi	r18, 0x0F	; 15
     dc2:	20 93 e9 00 	sts	0x00E9, r18	; 0x8000e9 <__TEXT_REGION_LENGTH__+0x7f80e9>
     dc6:	20 91 e8 00 	lds	r18, 0x00E8	; 0x8000e8 <__TEXT_REGION_LENGTH__+0x7f80e8>
     dca:	20 fd       	sbrc	r18, 0
     dcc:	0c 94 a3 06 	jmp	0xd46	; 0xd46 <CDC_Device_Flush>
     dd0:	08 95       	ret

00000dd2 <CDC_Device_BytesReceived>:
     dd2:	20 91 61 01 	lds	r18, 0x0161	; 0x800161 <USB_DeviceState>
     dd6:	24 30       	cpi	r18, 0x04	; 4
     dd8:	19 f0       	breq	.+6      	; 0xde0 <CDC_Device_BytesReceived+0xe>
     dda:	80 e0       	ldi	r24, 0x00	; 0
     ddc:	90 e0       	ldi	r25, 0x00	; 0
     dde:	08 95       	ret
     de0:	fc 01       	movw	r30, r24
     de2:	44 89       	ldd	r20, Z+20	; 0x14
     de4:	55 89       	ldd	r21, Z+21	; 0x15
     de6:	66 89       	ldd	r22, Z+22	; 0x16
     de8:	77 89       	ldd	r23, Z+23	; 0x17
     dea:	45 2b       	or	r20, r21
     dec:	46 2b       	or	r20, r22
     dee:	47 2b       	or	r20, r23
     df0:	a1 f3       	breq	.-24     	; 0xdda <CDC_Device_BytesReceived+0x8>
     df2:	86 81       	ldd	r24, Z+6	; 0x06
     df4:	8f 70       	andi	r24, 0x0F	; 15
     df6:	80 93 e9 00 	sts	0x00E9, r24	; 0x8000e9 <__TEXT_REGION_LENGTH__+0x7f80e9>
     dfa:	80 91 e8 00 	lds	r24, 0x00E8	; 0x8000e8 <__TEXT_REGION_LENGTH__+0x7f80e8>
     dfe:	82 ff       	sbrs	r24, 2
     e00:	ec cf       	rjmp	.-40     	; 0xdda <CDC_Device_BytesReceived+0x8>
     e02:	20 91 f3 00 	lds	r18, 0x00F3	; 0x8000f3 <__TEXT_REGION_LENGTH__+0x7f80f3>
     e06:	80 91 f2 00 	lds	r24, 0x00F2	; 0x8000f2 <__TEXT_REGION_LENGTH__+0x7f80f2>
     e0a:	90 e0       	ldi	r25, 0x00	; 0
     e0c:	92 2b       	or	r25, r18
     e0e:	00 97       	sbiw	r24, 0x00	; 0
     e10:	31 f4       	brne	.+12     	; 0xe1e <CDC_Device_BytesReceived+0x4c>
     e12:	20 91 e8 00 	lds	r18, 0x00E8	; 0x8000e8 <__TEXT_REGION_LENGTH__+0x7f80e8>
     e16:	2b 77       	andi	r18, 0x7B	; 123
     e18:	20 93 e8 00 	sts	0x00E8, r18	; 0x8000e8 <__TEXT_REGION_LENGTH__+0x7f80e8>
     e1c:	08 95       	ret
     e1e:	20 91 f3 00 	lds	r18, 0x00F3	; 0x8000f3 <__TEXT_REGION_LENGTH__+0x7f80f3>
     e22:	80 91 f2 00 	lds	r24, 0x00F2	; 0x8000f2 <__TEXT_REGION_LENGTH__+0x7f80f2>
     e26:	90 e0       	ldi	r25, 0x00	; 0
     e28:	92 2b       	or	r25, r18
     e2a:	08 95       	ret

00000e2c <CDC_Device_ReceiveByte>:
     e2c:	20 91 61 01 	lds	r18, 0x0161	; 0x800161 <USB_DeviceState>
     e30:	24 30       	cpi	r18, 0x04	; 4
     e32:	19 f0       	breq	.+6      	; 0xe3a <CDC_Device_ReceiveByte+0xe>
     e34:	8f ef       	ldi	r24, 0xFF	; 255
     e36:	9f ef       	ldi	r25, 0xFF	; 255
     e38:	08 95       	ret
     e3a:	fc 01       	movw	r30, r24
     e3c:	44 89       	ldd	r20, Z+20	; 0x14
     e3e:	55 89       	ldd	r21, Z+21	; 0x15
     e40:	66 89       	ldd	r22, Z+22	; 0x16
     e42:	77 89       	ldd	r23, Z+23	; 0x17
     e44:	45 2b       	or	r20, r21
     e46:	46 2b       	or	r20, r22
     e48:	47 2b       	or	r20, r23
     e4a:	a1 f3       	breq	.-24     	; 0xe34 <CDC_Device_ReceiveByte+0x8>
     e4c:	86 81       	ldd	r24, Z+6	; 0x06
     e4e:	8f 70       	andi	r24, 0x0F	; 15
     e50:	80 93 e9 00 	sts	0x00E9, r24	; 0x8000e9 <__TEXT_REGION_LENGTH__+0x7f80e9>
     e54:	80 91 e8 00 	lds	r24, 0x00E8	; 0x8000e8 <__TEXT_REGION_LENGTH__+0x7f80e8>
     e58:	82 ff       	sbrs	r24, 2
     e5a:	ec cf       	rjmp	.-40     	; 0xe34 <CDC_Device_ReceiveByte+0x8>
     e5c:	20 91 f3 00 	lds	r18, 0x00F3	; 0x8000f3 <__TEXT_REGION_LENGTH__+0x7f80f3>
     e60:	80 91 f2 00 	lds	r24, 0x00F2	; 0x8000f2 <__TEXT_REGION_LENGTH__+0x7f80f2>
     e64:	90 e0       	ldi	r25, 0x00	; 0
     e66:	92 2b       	or	r25, r18
     e68:	89 2b       	or	r24, r25
     e6a:	21 f0       	breq	.+8      	; 0xe74 <CDC_Device_ReceiveByte+0x48>
     e6c:	20 91 f1 00 	lds	r18, 0x00F1	; 0x8000f1 <__TEXT_REGION_LENGTH__+0x7f80f1>
     e70:	30 e0       	ldi	r19, 0x00	; 0
     e72:	02 c0       	rjmp	.+4      	; 0xe78 <CDC_Device_ReceiveByte+0x4c>
     e74:	2f ef       	ldi	r18, 0xFF	; 255
     e76:	3f ef       	ldi	r19, 0xFF	; 255
     e78:	40 91 f3 00 	lds	r20, 0x00F3	; 0x8000f3 <__TEXT_REGION_LENGTH__+0x7f80f3>
     e7c:	80 91 f2 00 	lds	r24, 0x00F2	; 0x8000f2 <__TEXT_REGION_LENGTH__+0x7f80f2>
     e80:	90 e0       	ldi	r25, 0x00	; 0
     e82:	94 2b       	or	r25, r20
     e84:	89 2b       	or	r24, r25
     e86:	29 f4       	brne	.+10     	; 0xe92 <CDC_Device_ReceiveByte+0x66>
     e88:	80 91 e8 00 	lds	r24, 0x00E8	; 0x8000e8 <__TEXT_REGION_LENGTH__+0x7f80e8>
     e8c:	8b 77       	andi	r24, 0x7B	; 123
     e8e:	80 93 e8 00 	sts	0x00E8, r24	; 0x8000e8 <__TEXT_REGION_LENGTH__+0x7f80e8>
     e92:	c9 01       	movw	r24, r18
     e94:	08 95       	ret

00000e96 <CDC_Device_getchar>:
     e96:	fc 01       	movw	r30, r24
     e98:	84 85       	ldd	r24, Z+12	; 0x0c
     e9a:	95 85       	ldd	r25, Z+13	; 0x0d
     e9c:	0e 94 16 07 	call	0xe2c	; 0xe2c <CDC_Device_ReceiveByte>
     ea0:	97 ff       	sbrs	r25, 7
     ea2:	02 c0       	rjmp	.+4      	; 0xea8 <CDC_Device_getchar+0x12>
     ea4:	8e ef       	ldi	r24, 0xFE	; 254
     ea6:	9f ef       	ldi	r25, 0xFF	; 255
     ea8:	08 95       	ret

00000eaa <CDC_Device_getchar_Blocking>:
     eaa:	cf 93       	push	r28
     eac:	df 93       	push	r29
     eae:	ec 01       	movw	r28, r24
     eb0:	8c 85       	ldd	r24, Y+12	; 0x0c
     eb2:	9d 85       	ldd	r25, Y+13	; 0x0d
     eb4:	0e 94 16 07 	call	0xe2c	; 0xe2c <CDC_Device_ReceiveByte>
     eb8:	97 ff       	sbrs	r25, 7
     eba:	0d c0       	rjmp	.+26     	; 0xed6 <CDC_Device_getchar_Blocking+0x2c>
     ebc:	80 91 61 01 	lds	r24, 0x0161	; 0x800161 <USB_DeviceState>
     ec0:	88 23       	and	r24, r24
     ec2:	39 f0       	breq	.+14     	; 0xed2 <CDC_Device_getchar_Blocking+0x28>
     ec4:	8c 85       	ldd	r24, Y+12	; 0x0c
     ec6:	9d 85       	ldd	r25, Y+13	; 0x0d
     ec8:	0e 94 d2 06 	call	0xda4	; 0xda4 <CDC_Device_USBTask>
     ecc:	0e 94 e8 05 	call	0xbd0	; 0xbd0 <USB_USBTask>
     ed0:	ef cf       	rjmp	.-34     	; 0xeb0 <CDC_Device_getchar_Blocking+0x6>
     ed2:	8e ef       	ldi	r24, 0xFE	; 254
     ed4:	9f ef       	ldi	r25, 0xFF	; 255
     ed6:	df 91       	pop	r29
     ed8:	cf 91       	pop	r28
     eda:	08 95       	ret

00000edc <CDC_Device_SendControlLineStateChange>:
     edc:	0f 93       	push	r16
     ede:	1f 93       	push	r17
     ee0:	cf 93       	push	r28
     ee2:	df 93       	push	r29
     ee4:	cd b7       	in	r28, 0x3d	; 61
     ee6:	de b7       	in	r29, 0x3e	; 62
     ee8:	28 97       	sbiw	r28, 0x08	; 8
     eea:	0f b6       	in	r0, 0x3f	; 63
     eec:	f8 94       	cli
     eee:	de bf       	out	0x3e, r29	; 62
     ef0:	0f be       	out	0x3f, r0	; 63
     ef2:	cd bf       	out	0x3d, r28	; 61
     ef4:	20 91 61 01 	lds	r18, 0x0161	; 0x800161 <USB_DeviceState>
     ef8:	24 30       	cpi	r18, 0x04	; 4
     efa:	61 f5       	brne	.+88     	; 0xf54 <CDC_Device_SendControlLineStateChange+0x78>
     efc:	fc 01       	movw	r30, r24
     efe:	44 89       	ldd	r20, Z+20	; 0x14
     f00:	55 89       	ldd	r21, Z+21	; 0x15
     f02:	66 89       	ldd	r22, Z+22	; 0x16
     f04:	77 89       	ldd	r23, Z+23	; 0x17
     f06:	45 2b       	or	r20, r21
     f08:	46 2b       	or	r20, r22
     f0a:	47 2b       	or	r20, r23
     f0c:	19 f1       	breq	.+70     	; 0xf54 <CDC_Device_SendControlLineStateChange+0x78>
     f0e:	8c 01       	movw	r16, r24
     f10:	83 85       	ldd	r24, Z+11	; 0x0b
     f12:	8f 70       	andi	r24, 0x0F	; 15
     f14:	80 93 e9 00 	sts	0x00E9, r24	; 0x8000e9 <__TEXT_REGION_LENGTH__+0x7f80e9>
     f18:	88 e0       	ldi	r24, 0x08	; 8
     f1a:	ec e1       	ldi	r30, 0x1C	; 28
     f1c:	f1 e0       	ldi	r31, 0x01	; 1
     f1e:	de 01       	movw	r26, r28
     f20:	11 96       	adiw	r26, 0x01	; 1
     f22:	01 90       	ld	r0, Z+
     f24:	0d 92       	st	X+, r0
     f26:	8a 95       	dec	r24
     f28:	e1 f7       	brne	.-8      	; 0xf22 <CDC_Device_SendControlLineStateChange+0x46>
     f2a:	40 e0       	ldi	r20, 0x00	; 0
     f2c:	50 e0       	ldi	r21, 0x00	; 0
     f2e:	68 e0       	ldi	r22, 0x08	; 8
     f30:	70 e0       	ldi	r23, 0x00	; 0
     f32:	ce 01       	movw	r24, r28
     f34:	01 96       	adiw	r24, 0x01	; 1
     f36:	0e 94 45 09 	call	0x128a	; 0x128a <Endpoint_Write_Stream_LE>
     f3a:	40 e0       	ldi	r20, 0x00	; 0
     f3c:	50 e0       	ldi	r21, 0x00	; 0
     f3e:	62 e0       	ldi	r22, 0x02	; 2
     f40:	70 e0       	ldi	r23, 0x00	; 0
     f42:	c8 01       	movw	r24, r16
     f44:	42 96       	adiw	r24, 0x12	; 18
     f46:	0e 94 45 09 	call	0x128a	; 0x128a <Endpoint_Write_Stream_LE>
     f4a:	80 91 e8 00 	lds	r24, 0x00E8	; 0x8000e8 <__TEXT_REGION_LENGTH__+0x7f80e8>
     f4e:	8e 77       	andi	r24, 0x7E	; 126
     f50:	80 93 e8 00 	sts	0x00E8, r24	; 0x8000e8 <__TEXT_REGION_LENGTH__+0x7f80e8>
     f54:	28 96       	adiw	r28, 0x08	; 8
     f56:	0f b6       	in	r0, 0x3f	; 63
     f58:	f8 94       	cli
     f5a:	de bf       	out	0x3e, r29	; 62
     f5c:	0f be       	out	0x3f, r0	; 63
     f5e:	cd bf       	out	0x3d, r28	; 61
     f60:	df 91       	pop	r29
     f62:	cf 91       	pop	r28
     f64:	1f 91       	pop	r17
     f66:	0f 91       	pop	r16
     f68:	08 95       	ret

00000f6a <CDC_Device_CreateStream>:
     f6a:	fb 01       	movw	r30, r22
     f6c:	2e e0       	ldi	r18, 0x0E	; 14
     f6e:	db 01       	movw	r26, r22
     f70:	1d 92       	st	X+, r1
     f72:	2a 95       	dec	r18
     f74:	e9 f7       	brne	.-6      	; 0xf70 <CDC_Device_CreateStream+0x6>
     f76:	23 e0       	ldi	r18, 0x03	; 3
     f78:	23 83       	std	Z+3, r18	; 0x03
     f7a:	22 e9       	ldi	r18, 0x92	; 146
     f7c:	36 e0       	ldi	r19, 0x06	; 6
     f7e:	31 87       	std	Z+9, r19	; 0x09
     f80:	20 87       	std	Z+8, r18	; 0x08
     f82:	2b e4       	ldi	r18, 0x4B	; 75
     f84:	37 e0       	ldi	r19, 0x07	; 7
     f86:	33 87       	std	Z+11, r19	; 0x0b
     f88:	22 87       	std	Z+10, r18	; 0x0a
     f8a:	95 87       	std	Z+13, r25	; 0x0d
     f8c:	84 87       	std	Z+12, r24	; 0x0c
     f8e:	08 95       	ret

00000f90 <CDC_Device_CreateBlockingStream>:
     f90:	fb 01       	movw	r30, r22
     f92:	2e e0       	ldi	r18, 0x0E	; 14
     f94:	db 01       	movw	r26, r22
     f96:	1d 92       	st	X+, r1
     f98:	2a 95       	dec	r18
     f9a:	e9 f7       	brne	.-6      	; 0xf96 <CDC_Device_CreateBlockingStream+0x6>
     f9c:	23 e0       	ldi	r18, 0x03	; 3
     f9e:	23 83       	std	Z+3, r18	; 0x03
     fa0:	22 e9       	ldi	r18, 0x92	; 146
     fa2:	36 e0       	ldi	r19, 0x06	; 6
     fa4:	31 87       	std	Z+9, r19	; 0x09
     fa6:	20 87       	std	Z+8, r18	; 0x08
     fa8:	25 e5       	ldi	r18, 0x55	; 85
     faa:	37 e0       	ldi	r19, 0x07	; 7
     fac:	33 87       	std	Z+11, r19	; 0x0b
     fae:	22 87       	std	Z+10, r18	; 0x0a
     fb0:	95 87       	std	Z+13, r25	; 0x0d
     fb2:	84 87       	std	Z+12, r24	; 0x0c
     fb4:	08 95       	ret

00000fb6 <CDC_Device_Event_Stub>:
     fb6:	08 95       	ret

00000fb8 <CDC_Device_ProcessControlRequest>:
     fb8:	cf 93       	push	r28
     fba:	df 93       	push	r29
     fbc:	ec 01       	movw	r28, r24
     fbe:	80 91 e8 00 	lds	r24, 0x00E8	; 0x8000e8 <__TEXT_REGION_LENGTH__+0x7f80e8>
     fc2:	83 ff       	sbrs	r24, 3
     fc4:	ad c0       	rjmp	.+346    	; 0x1120 <CDC_Device_ProcessControlRequest+0x168>
     fc6:	88 81       	ld	r24, Y
     fc8:	90 e0       	ldi	r25, 0x00	; 0
     fca:	20 91 66 01 	lds	r18, 0x0166	; 0x800166 <USB_ControlRequest+0x4>
     fce:	30 91 67 01 	lds	r19, 0x0167	; 0x800167 <USB_ControlRequest+0x5>
     fd2:	28 17       	cp	r18, r24
     fd4:	39 07       	cpc	r19, r25
     fd6:	09 f0       	breq	.+2      	; 0xfda <CDC_Device_ProcessControlRequest+0x22>
     fd8:	a3 c0       	rjmp	.+326    	; 0x1120 <CDC_Device_ProcessControlRequest+0x168>
     fda:	80 91 63 01 	lds	r24, 0x0163	; 0x800163 <USB_ControlRequest+0x1>
     fde:	81 32       	cpi	r24, 0x21	; 33
     fe0:	61 f0       	breq	.+24     	; 0xffa <CDC_Device_ProcessControlRequest+0x42>
     fe2:	20 f4       	brcc	.+8      	; 0xfec <CDC_Device_ProcessControlRequest+0x34>
     fe4:	80 32       	cpi	r24, 0x20	; 32
     fe6:	09 f4       	brne	.+2      	; 0xfea <CDC_Device_ProcessControlRequest+0x32>
     fe8:	3f c0       	rjmp	.+126    	; 0x1068 <CDC_Device_ProcessControlRequest+0xb0>
     fea:	9a c0       	rjmp	.+308    	; 0x1120 <CDC_Device_ProcessControlRequest+0x168>
     fec:	82 32       	cpi	r24, 0x22	; 34
     fee:	09 f4       	brne	.+2      	; 0xff2 <CDC_Device_ProcessControlRequest+0x3a>
     ff0:	6f c0       	rjmp	.+222    	; 0x10d0 <CDC_Device_ProcessControlRequest+0x118>
     ff2:	83 32       	cpi	r24, 0x23	; 35
     ff4:	09 f4       	brne	.+2      	; 0xff8 <CDC_Device_ProcessControlRequest+0x40>
     ff6:	82 c0       	rjmp	.+260    	; 0x10fc <CDC_Device_ProcessControlRequest+0x144>
     ff8:	93 c0       	rjmp	.+294    	; 0x1120 <CDC_Device_ProcessControlRequest+0x168>
     ffa:	80 91 62 01 	lds	r24, 0x0162	; 0x800162 <USB_ControlRequest>
     ffe:	81 3a       	cpi	r24, 0xA1	; 161
    1000:	09 f0       	breq	.+2      	; 0x1004 <CDC_Device_ProcessControlRequest+0x4c>
    1002:	8e c0       	rjmp	.+284    	; 0x1120 <CDC_Device_ProcessControlRequest+0x168>
    1004:	80 91 e8 00 	lds	r24, 0x00E8	; 0x8000e8 <__TEXT_REGION_LENGTH__+0x7f80e8>
    1008:	87 7f       	andi	r24, 0xF7	; 247
    100a:	80 93 e8 00 	sts	0x00E8, r24	; 0x8000e8 <__TEXT_REGION_LENGTH__+0x7f80e8>
    100e:	80 91 e8 00 	lds	r24, 0x00E8	; 0x8000e8 <__TEXT_REGION_LENGTH__+0x7f80e8>
    1012:	80 ff       	sbrs	r24, 0
    1014:	fc cf       	rjmp	.-8      	; 0x100e <CDC_Device_ProcessControlRequest+0x56>
    1016:	8c 89       	ldd	r24, Y+20	; 0x14
    1018:	9d 89       	ldd	r25, Y+21	; 0x15
    101a:	ae 89       	ldd	r26, Y+22	; 0x16
    101c:	bf 89       	ldd	r27, Y+23	; 0x17
    101e:	80 93 f1 00 	sts	0x00F1, r24	; 0x8000f1 <__TEXT_REGION_LENGTH__+0x7f80f1>
    1022:	49 2f       	mov	r20, r25
    1024:	5a 2f       	mov	r21, r26
    1026:	6b 2f       	mov	r22, r27
    1028:	77 27       	eor	r23, r23
    102a:	40 93 f1 00 	sts	0x00F1, r20	; 0x8000f1 <__TEXT_REGION_LENGTH__+0x7f80f1>
    102e:	ad 01       	movw	r20, r26
    1030:	66 27       	eor	r22, r22
    1032:	77 27       	eor	r23, r23
    1034:	40 93 f1 00 	sts	0x00F1, r20	; 0x8000f1 <__TEXT_REGION_LENGTH__+0x7f80f1>
    1038:	8b 2f       	mov	r24, r27
    103a:	99 27       	eor	r25, r25
    103c:	aa 27       	eor	r26, r26
    103e:	bb 27       	eor	r27, r27
    1040:	80 93 f1 00 	sts	0x00F1, r24	; 0x8000f1 <__TEXT_REGION_LENGTH__+0x7f80f1>
    1044:	88 8d       	ldd	r24, Y+24	; 0x18
    1046:	80 93 f1 00 	sts	0x00F1, r24	; 0x8000f1 <__TEXT_REGION_LENGTH__+0x7f80f1>
    104a:	89 8d       	ldd	r24, Y+25	; 0x19
    104c:	80 93 f1 00 	sts	0x00F1, r24	; 0x8000f1 <__TEXT_REGION_LENGTH__+0x7f80f1>
    1050:	8a 8d       	ldd	r24, Y+26	; 0x1a
    1052:	80 93 f1 00 	sts	0x00F1, r24	; 0x8000f1 <__TEXT_REGION_LENGTH__+0x7f80f1>
    1056:	80 91 e8 00 	lds	r24, 0x00E8	; 0x8000e8 <__TEXT_REGION_LENGTH__+0x7f80e8>
    105a:	8e 77       	andi	r24, 0x7E	; 126
    105c:	80 93 e8 00 	sts	0x00E8, r24	; 0x8000e8 <__TEXT_REGION_LENGTH__+0x7f80e8>
    1060:	df 91       	pop	r29
    1062:	cf 91       	pop	r28
    1064:	0c 94 7c 10 	jmp	0x20f8	; 0x20f8 <Endpoint_ClearStatusStage>
    1068:	80 91 62 01 	lds	r24, 0x0162	; 0x800162 <USB_ControlRequest>
    106c:	81 32       	cpi	r24, 0x21	; 33
    106e:	09 f0       	breq	.+2      	; 0x1072 <CDC_Device_ProcessControlRequest+0xba>
    1070:	57 c0       	rjmp	.+174    	; 0x1120 <CDC_Device_ProcessControlRequest+0x168>
    1072:	80 91 e8 00 	lds	r24, 0x00E8	; 0x8000e8 <__TEXT_REGION_LENGTH__+0x7f80e8>
    1076:	87 7f       	andi	r24, 0xF7	; 247
    1078:	80 93 e8 00 	sts	0x00E8, r24	; 0x8000e8 <__TEXT_REGION_LENGTH__+0x7f80e8>
    107c:	80 91 e8 00 	lds	r24, 0x00E8	; 0x8000e8 <__TEXT_REGION_LENGTH__+0x7f80e8>
    1080:	82 fd       	sbrc	r24, 2
    1082:	05 c0       	rjmp	.+10     	; 0x108e <CDC_Device_ProcessControlRequest+0xd6>
    1084:	80 91 61 01 	lds	r24, 0x0161	; 0x800161 <USB_DeviceState>
    1088:	81 11       	cpse	r24, r1
    108a:	f8 cf       	rjmp	.-16     	; 0x107c <CDC_Device_ProcessControlRequest+0xc4>
    108c:	49 c0       	rjmp	.+146    	; 0x1120 <CDC_Device_ProcessControlRequest+0x168>
    108e:	30 91 f1 00 	lds	r19, 0x00F1	; 0x8000f1 <__TEXT_REGION_LENGTH__+0x7f80f1>
    1092:	20 91 f1 00 	lds	r18, 0x00F1	; 0x8000f1 <__TEXT_REGION_LENGTH__+0x7f80f1>
    1096:	90 91 f1 00 	lds	r25, 0x00F1	; 0x8000f1 <__TEXT_REGION_LENGTH__+0x7f80f1>
    109a:	80 91 f1 00 	lds	r24, 0x00F1	; 0x8000f1 <__TEXT_REGION_LENGTH__+0x7f80f1>
    109e:	3c 8b       	std	Y+20, r19	; 0x14
    10a0:	2d 8b       	std	Y+21, r18	; 0x15
    10a2:	9e 8b       	std	Y+22, r25	; 0x16
    10a4:	8f 8b       	std	Y+23, r24	; 0x17
    10a6:	80 91 f1 00 	lds	r24, 0x00F1	; 0x8000f1 <__TEXT_REGION_LENGTH__+0x7f80f1>
    10aa:	88 8f       	std	Y+24, r24	; 0x18
    10ac:	80 91 f1 00 	lds	r24, 0x00F1	; 0x8000f1 <__TEXT_REGION_LENGTH__+0x7f80f1>
    10b0:	89 8f       	std	Y+25, r24	; 0x19
    10b2:	80 91 f1 00 	lds	r24, 0x00F1	; 0x8000f1 <__TEXT_REGION_LENGTH__+0x7f80f1>
    10b6:	8a 8f       	std	Y+26, r24	; 0x1a
    10b8:	80 91 e8 00 	lds	r24, 0x00E8	; 0x8000e8 <__TEXT_REGION_LENGTH__+0x7f80e8>
    10bc:	8b 77       	andi	r24, 0x7B	; 123
    10be:	80 93 e8 00 	sts	0x00E8, r24	; 0x8000e8 <__TEXT_REGION_LENGTH__+0x7f80e8>
    10c2:	0e 94 7c 10 	call	0x20f8	; 0x20f8 <Endpoint_ClearStatusStage>
    10c6:	ce 01       	movw	r24, r28
    10c8:	df 91       	pop	r29
    10ca:	cf 91       	pop	r28
    10cc:	0c 94 db 07 	jmp	0xfb6	; 0xfb6 <CDC_Device_Event_Stub>
    10d0:	80 91 62 01 	lds	r24, 0x0162	; 0x800162 <USB_ControlRequest>
    10d4:	81 32       	cpi	r24, 0x21	; 33
    10d6:	21 f5       	brne	.+72     	; 0x1120 <CDC_Device_ProcessControlRequest+0x168>
    10d8:	80 91 e8 00 	lds	r24, 0x00E8	; 0x8000e8 <__TEXT_REGION_LENGTH__+0x7f80e8>
    10dc:	87 7f       	andi	r24, 0xF7	; 247
    10de:	80 93 e8 00 	sts	0x00E8, r24	; 0x8000e8 <__TEXT_REGION_LENGTH__+0x7f80e8>
    10e2:	0e 94 7c 10 	call	0x20f8	; 0x20f8 <Endpoint_ClearStatusStage>
    10e6:	80 91 64 01 	lds	r24, 0x0164	; 0x800164 <USB_ControlRequest+0x2>
    10ea:	90 91 65 01 	lds	r25, 0x0165	; 0x800165 <USB_ControlRequest+0x3>
    10ee:	99 8b       	std	Y+17, r25	; 0x11
    10f0:	88 8b       	std	Y+16, r24	; 0x10
    10f2:	ce 01       	movw	r24, r28
    10f4:	df 91       	pop	r29
    10f6:	cf 91       	pop	r28
    10f8:	0c 94 db 07 	jmp	0xfb6	; 0xfb6 <CDC_Device_Event_Stub>
    10fc:	80 91 62 01 	lds	r24, 0x0162	; 0x800162 <USB_ControlRequest>
    1100:	81 32       	cpi	r24, 0x21	; 33
    1102:	71 f4       	brne	.+28     	; 0x1120 <CDC_Device_ProcessControlRequest+0x168>
    1104:	80 91 e8 00 	lds	r24, 0x00E8	; 0x8000e8 <__TEXT_REGION_LENGTH__+0x7f80e8>
    1108:	87 7f       	andi	r24, 0xF7	; 247
    110a:	80 93 e8 00 	sts	0x00E8, r24	; 0x8000e8 <__TEXT_REGION_LENGTH__+0x7f80e8>
    110e:	0e 94 7c 10 	call	0x20f8	; 0x20f8 <Endpoint_ClearStatusStage>
    1112:	60 91 64 01 	lds	r22, 0x0164	; 0x800164 <USB_ControlRequest+0x2>
    1116:	ce 01       	movw	r24, r28
    1118:	df 91       	pop	r29
    111a:	cf 91       	pop	r28
    111c:	0c 94 db 07 	jmp	0xfb6	; 0xfb6 <CDC_Device_Event_Stub>
    1120:	df 91       	pop	r29
    1122:	cf 91       	pop	r28
    1124:	08 95       	ret

00001126 <CALLBACK_USB_GetDescriptor>:
    1126:	29 2f       	mov	r18, r25
    1128:	33 27       	eor	r19, r19
    112a:	22 30       	cpi	r18, 0x02	; 2
    112c:	31 05       	cpc	r19, r1
    112e:	59 f0       	breq	.+22     	; 0x1146 <CALLBACK_USB_GetDescriptor+0x20>
    1130:	23 30       	cpi	r18, 0x03	; 3
    1132:	31 05       	cpc	r19, r1
    1134:	69 f0       	breq	.+26     	; 0x1150 <CALLBACK_USB_GetDescriptor+0x2a>
    1136:	21 30       	cpi	r18, 0x01	; 1
    1138:	31 05       	cpc	r19, r1
    113a:	e9 f4       	brne	.+58     	; 0x1176 <CALLBACK_USB_GetDescriptor+0x50>
    113c:	82 e1       	ldi	r24, 0x12	; 18
    113e:	90 e0       	ldi	r25, 0x00	; 0
    1140:	26 e2       	ldi	r18, 0x26	; 38
    1142:	31 e0       	ldi	r19, 0x01	; 1
    1144:	1c c0       	rjmp	.+56     	; 0x117e <CALLBACK_USB_GetDescriptor+0x58>
    1146:	8e e3       	ldi	r24, 0x3E	; 62
    1148:	90 e0       	ldi	r25, 0x00	; 0
    114a:	28 ee       	ldi	r18, 0xE8	; 232
    114c:	30 e0       	ldi	r19, 0x00	; 0
    114e:	17 c0       	rjmp	.+46     	; 0x117e <CALLBACK_USB_GetDescriptor+0x58>
    1150:	99 27       	eor	r25, r25
    1152:	81 30       	cpi	r24, 0x01	; 1
    1154:	91 05       	cpc	r25, r1
    1156:	49 f0       	breq	.+18     	; 0x116a <CALLBACK_USB_GetDescriptor+0x44>
    1158:	28 f0       	brcs	.+10     	; 0x1164 <CALLBACK_USB_GetDescriptor+0x3e>
    115a:	02 97       	sbiw	r24, 0x02	; 2
    115c:	61 f4       	brne	.+24     	; 0x1176 <CALLBACK_USB_GetDescriptor+0x50>
    115e:	ec ea       	ldi	r30, 0xAC	; 172
    1160:	f0 e0       	ldi	r31, 0x00	; 0
    1162:	05 c0       	rjmp	.+10     	; 0x116e <CALLBACK_USB_GetDescriptor+0x48>
    1164:	e4 ee       	ldi	r30, 0xE4	; 228
    1166:	f0 e0       	ldi	r31, 0x00	; 0
    1168:	02 c0       	rjmp	.+4      	; 0x116e <CALLBACK_USB_GetDescriptor+0x48>
    116a:	ea ec       	ldi	r30, 0xCA	; 202
    116c:	f0 e0       	ldi	r31, 0x00	; 0
    116e:	84 91       	lpm	r24, Z
    1170:	90 e0       	ldi	r25, 0x00	; 0
    1172:	9f 01       	movw	r18, r30
    1174:	04 c0       	rjmp	.+8      	; 0x117e <CALLBACK_USB_GetDescriptor+0x58>
    1176:	80 e0       	ldi	r24, 0x00	; 0
    1178:	90 e0       	ldi	r25, 0x00	; 0
    117a:	20 e0       	ldi	r18, 0x00	; 0
    117c:	30 e0       	ldi	r19, 0x00	; 0
    117e:	fa 01       	movw	r30, r20
    1180:	31 83       	std	Z+1, r19	; 0x01
    1182:	20 83       	st	Z, r18
    1184:	08 95       	ret

00001186 <Endpoint_Discard_Stream>:
    1186:	ef 92       	push	r14
    1188:	ff 92       	push	r15
    118a:	0f 93       	push	r16
    118c:	1f 93       	push	r17
    118e:	cf 93       	push	r28
    1190:	df 93       	push	r29
    1192:	ec 01       	movw	r28, r24
    1194:	8b 01       	movw	r16, r22
    1196:	0e 94 9b 10 	call	0x2136	; 0x2136 <Endpoint_WaitUntilReady>
    119a:	81 11       	cpse	r24, r1
    119c:	2e c0       	rjmp	.+92     	; 0x11fa <Endpoint_Discard_Stream+0x74>
    119e:	01 15       	cp	r16, r1
    11a0:	11 05       	cpc	r17, r1
    11a2:	29 f0       	breq	.+10     	; 0x11ae <Endpoint_Discard_Stream+0x28>
    11a4:	f8 01       	movw	r30, r16
    11a6:	80 81       	ld	r24, Z
    11a8:	91 81       	ldd	r25, Z+1	; 0x01
    11aa:	c8 1b       	sub	r28, r24
    11ac:	d9 0b       	sbc	r29, r25
    11ae:	e1 2c       	mov	r14, r1
    11b0:	f1 2c       	mov	r15, r1
    11b2:	20 97       	sbiw	r28, 0x00	; 0
    11b4:	09 f1       	breq	.+66     	; 0x11f8 <Endpoint_Discard_Stream+0x72>
    11b6:	80 91 e8 00 	lds	r24, 0x00E8	; 0x8000e8 <__TEXT_REGION_LENGTH__+0x7f80e8>
    11ba:	85 fd       	sbrc	r24, 5
    11bc:	16 c0       	rjmp	.+44     	; 0x11ea <Endpoint_Discard_Stream+0x64>
    11be:	80 91 e8 00 	lds	r24, 0x00E8	; 0x8000e8 <__TEXT_REGION_LENGTH__+0x7f80e8>
    11c2:	8b 77       	andi	r24, 0x7B	; 123
    11c4:	80 93 e8 00 	sts	0x00E8, r24	; 0x8000e8 <__TEXT_REGION_LENGTH__+0x7f80e8>
    11c8:	01 15       	cp	r16, r1
    11ca:	11 05       	cpc	r17, r1
    11cc:	49 f0       	breq	.+18     	; 0x11e0 <Endpoint_Discard_Stream+0x5a>
    11ce:	f8 01       	movw	r30, r16
    11d0:	80 81       	ld	r24, Z
    11d2:	91 81       	ldd	r25, Z+1	; 0x01
    11d4:	e8 0e       	add	r14, r24
    11d6:	f9 1e       	adc	r15, r25
    11d8:	f1 82       	std	Z+1, r15	; 0x01
    11da:	e0 82       	st	Z, r14
    11dc:	85 e0       	ldi	r24, 0x05	; 5
    11de:	0d c0       	rjmp	.+26     	; 0x11fa <Endpoint_Discard_Stream+0x74>
    11e0:	0e 94 9b 10 	call	0x2136	; 0x2136 <Endpoint_WaitUntilReady>
    11e4:	88 23       	and	r24, r24
    11e6:	29 f3       	breq	.-54     	; 0x11b2 <Endpoint_Discard_Stream+0x2c>
    11e8:	08 c0       	rjmp	.+16     	; 0x11fa <Endpoint_Discard_Stream+0x74>
    11ea:	80 91 f1 00 	lds	r24, 0x00F1	; 0x8000f1 <__TEXT_REGION_LENGTH__+0x7f80f1>
    11ee:	21 97       	sbiw	r28, 0x01	; 1
    11f0:	ff ef       	ldi	r31, 0xFF	; 255
    11f2:	ef 1a       	sub	r14, r31
    11f4:	ff 0a       	sbc	r15, r31
    11f6:	dd cf       	rjmp	.-70     	; 0x11b2 <Endpoint_Discard_Stream+0x2c>
    11f8:	80 e0       	ldi	r24, 0x00	; 0
    11fa:	df 91       	pop	r29
    11fc:	cf 91       	pop	r28
    11fe:	1f 91       	pop	r17
    1200:	0f 91       	pop	r16
    1202:	ff 90       	pop	r15
    1204:	ef 90       	pop	r14
    1206:	08 95       	ret

00001208 <Endpoint_Null_Stream>:
    1208:	ef 92       	push	r14
    120a:	ff 92       	push	r15
    120c:	0f 93       	push	r16
    120e:	1f 93       	push	r17
    1210:	cf 93       	push	r28
    1212:	df 93       	push	r29
    1214:	ec 01       	movw	r28, r24
    1216:	8b 01       	movw	r16, r22
    1218:	0e 94 9b 10 	call	0x2136	; 0x2136 <Endpoint_WaitUntilReady>
    121c:	81 11       	cpse	r24, r1
    121e:	2e c0       	rjmp	.+92     	; 0x127c <Endpoint_Null_Stream+0x74>
    1220:	01 15       	cp	r16, r1
    1222:	11 05       	cpc	r17, r1
    1224:	29 f0       	breq	.+10     	; 0x1230 <Endpoint_Null_Stream+0x28>
    1226:	f8 01       	movw	r30, r16
    1228:	80 81       	ld	r24, Z
    122a:	91 81       	ldd	r25, Z+1	; 0x01
    122c:	c8 1b       	sub	r28, r24
    122e:	d9 0b       	sbc	r29, r25
    1230:	e1 2c       	mov	r14, r1
    1232:	f1 2c       	mov	r15, r1
    1234:	20 97       	sbiw	r28, 0x00	; 0
    1236:	09 f1       	breq	.+66     	; 0x127a <Endpoint_Null_Stream+0x72>
    1238:	80 91 e8 00 	lds	r24, 0x00E8	; 0x8000e8 <__TEXT_REGION_LENGTH__+0x7f80e8>
    123c:	85 fd       	sbrc	r24, 5
    123e:	16 c0       	rjmp	.+44     	; 0x126c <Endpoint_Null_Stream+0x64>
    1240:	80 91 e8 00 	lds	r24, 0x00E8	; 0x8000e8 <__TEXT_REGION_LENGTH__+0x7f80e8>
    1244:	8e 77       	andi	r24, 0x7E	; 126
    1246:	80 93 e8 00 	sts	0x00E8, r24	; 0x8000e8 <__TEXT_REGION_LENGTH__+0x7f80e8>
    124a:	01 15       	cp	r16, r1
    124c:	11 05       	cpc	r17, r1
    124e:	49 f0       	breq	.+18     	; 0x1262 <Endpoint_Null_Stream+0x5a>
    1250:	f8 01       	movw	r30, r16
    1252:	80 81       	ld	r24, Z
    1254:	91 81       	ldd	r25, Z+1	; 0x01
    1256:	e8 0e       	add	r14, r24
    1258:	f9 1e       	adc	r15, r25
    125a:	f1 82       	std	Z+1, r15	; 0x01
    125c:	e0 82       	st	Z, r14
    125e:	85 e0       	ldi	r24, 0x05	; 5
    1260:	0d c0       	rjmp	.+26     	; 0x127c <Endpoint_Null_Stream+0x74>
    1262:	0e 94 9b 10 	call	0x2136	; 0x2136 <Endpoint_WaitUntilReady>
    1266:	88 23       	and	r24, r24
    1268:	29 f3       	breq	.-54     	; 0x1234 <Endpoint_Null_Stream+0x2c>
    126a:	08 c0       	rjmp	.+16     	; 0x127c <Endpoint_Null_Stream+0x74>
    126c:	10 92 f1 00 	sts	0x00F1, r1	; 0x8000f1 <__TEXT_REGION_LENGTH__+0x7f80f1>
    1270:	21 97       	sbiw	r28, 0x01	; 1
    1272:	ff ef       	ldi	r31, 0xFF	; 255
    1274:	ef 1a       	sub	r14, r31
    1276:	ff 0a       	sbc	r15, r31
    1278:	dd cf       	rjmp	.-70     	; 0x1234 <Endpoint_Null_Stream+0x2c>
    127a:	80 e0       	ldi	r24, 0x00	; 0
    127c:	df 91       	pop	r29
    127e:	cf 91       	pop	r28
    1280:	1f 91       	pop	r17
    1282:	0f 91       	pop	r16
    1284:	ff 90       	pop	r15
    1286:	ef 90       	pop	r14
    1288:	08 95       	ret

0000128a <Endpoint_Write_Stream_LE>:
    128a:	cf 92       	push	r12
    128c:	df 92       	push	r13
    128e:	ef 92       	push	r14
    1290:	ff 92       	push	r15
    1292:	0f 93       	push	r16
    1294:	1f 93       	push	r17
    1296:	cf 93       	push	r28
    1298:	df 93       	push	r29
    129a:	ec 01       	movw	r28, r24
    129c:	8b 01       	movw	r16, r22
    129e:	7a 01       	movw	r14, r20
    12a0:	0e 94 9b 10 	call	0x2136	; 0x2136 <Endpoint_WaitUntilReady>
    12a4:	81 11       	cpse	r24, r1
    12a6:	33 c0       	rjmp	.+102    	; 0x130e <Endpoint_Write_Stream_LE+0x84>
    12a8:	e1 14       	cp	r14, r1
    12aa:	f1 04       	cpc	r15, r1
    12ac:	39 f0       	breq	.+14     	; 0x12bc <Endpoint_Write_Stream_LE+0x32>
    12ae:	f7 01       	movw	r30, r14
    12b0:	80 81       	ld	r24, Z
    12b2:	91 81       	ldd	r25, Z+1	; 0x01
    12b4:	08 1b       	sub	r16, r24
    12b6:	19 0b       	sbc	r17, r25
    12b8:	c8 0f       	add	r28, r24
    12ba:	d9 1f       	adc	r29, r25
    12bc:	c1 2c       	mov	r12, r1
    12be:	d1 2c       	mov	r13, r1
    12c0:	01 15       	cp	r16, r1
    12c2:	11 05       	cpc	r17, r1
    12c4:	19 f1       	breq	.+70     	; 0x130c <Endpoint_Write_Stream_LE+0x82>
    12c6:	80 91 e8 00 	lds	r24, 0x00E8	; 0x8000e8 <__TEXT_REGION_LENGTH__+0x7f80e8>
    12ca:	85 fd       	sbrc	r24, 5
    12cc:	16 c0       	rjmp	.+44     	; 0x12fa <Endpoint_Write_Stream_LE+0x70>
    12ce:	80 91 e8 00 	lds	r24, 0x00E8	; 0x8000e8 <__TEXT_REGION_LENGTH__+0x7f80e8>
    12d2:	8e 77       	andi	r24, 0x7E	; 126
    12d4:	80 93 e8 00 	sts	0x00E8, r24	; 0x8000e8 <__TEXT_REGION_LENGTH__+0x7f80e8>
    12d8:	e1 14       	cp	r14, r1
    12da:	f1 04       	cpc	r15, r1
    12dc:	49 f0       	breq	.+18     	; 0x12f0 <Endpoint_Write_Stream_LE+0x66>
    12de:	f7 01       	movw	r30, r14
    12e0:	80 81       	ld	r24, Z
    12e2:	91 81       	ldd	r25, Z+1	; 0x01
    12e4:	c8 0e       	add	r12, r24
    12e6:	d9 1e       	adc	r13, r25
    12e8:	d1 82       	std	Z+1, r13	; 0x01
    12ea:	c0 82       	st	Z, r12
    12ec:	85 e0       	ldi	r24, 0x05	; 5
    12ee:	0f c0       	rjmp	.+30     	; 0x130e <Endpoint_Write_Stream_LE+0x84>
    12f0:	0e 94 9b 10 	call	0x2136	; 0x2136 <Endpoint_WaitUntilReady>
    12f4:	88 23       	and	r24, r24
    12f6:	21 f3       	breq	.-56     	; 0x12c0 <Endpoint_Write_Stream_LE+0x36>
    12f8:	0a c0       	rjmp	.+20     	; 0x130e <Endpoint_Write_Stream_LE+0x84>
    12fa:	89 91       	ld	r24, Y+
    12fc:	80 93 f1 00 	sts	0x00F1, r24	; 0x8000f1 <__TEXT_REGION_LENGTH__+0x7f80f1>
    1300:	01 50       	subi	r16, 0x01	; 1
    1302:	11 09       	sbc	r17, r1
    1304:	ff ef       	ldi	r31, 0xFF	; 255
    1306:	cf 1a       	sub	r12, r31
    1308:	df 0a       	sbc	r13, r31
    130a:	da cf       	rjmp	.-76     	; 0x12c0 <Endpoint_Write_Stream_LE+0x36>
    130c:	80 e0       	ldi	r24, 0x00	; 0
    130e:	df 91       	pop	r29
    1310:	cf 91       	pop	r28
    1312:	1f 91       	pop	r17
    1314:	0f 91       	pop	r16
    1316:	ff 90       	pop	r15
    1318:	ef 90       	pop	r14
    131a:	df 90       	pop	r13
    131c:	cf 90       	pop	r12
    131e:	08 95       	ret

00001320 <Endpoint_Write_Stream_BE>:
    1320:	cf 92       	push	r12
    1322:	df 92       	push	r13
    1324:	ef 92       	push	r14
    1326:	ff 92       	push	r15
    1328:	0f 93       	push	r16
    132a:	1f 93       	push	r17
    132c:	cf 93       	push	r28
    132e:	df 93       	push	r29
    1330:	ec 01       	movw	r28, r24
    1332:	8b 01       	movw	r16, r22
    1334:	7a 01       	movw	r14, r20
    1336:	0e 94 9b 10 	call	0x2136	; 0x2136 <Endpoint_WaitUntilReady>
    133a:	81 11       	cpse	r24, r1
    133c:	38 c0       	rjmp	.+112    	; 0x13ae <Endpoint_Write_Stream_BE+0x8e>
    133e:	c8 01       	movw	r24, r16
    1340:	01 97       	sbiw	r24, 0x01	; 1
    1342:	c8 0f       	add	r28, r24
    1344:	d9 1f       	adc	r29, r25
    1346:	e1 14       	cp	r14, r1
    1348:	f1 04       	cpc	r15, r1
    134a:	39 f0       	breq	.+14     	; 0x135a <Endpoint_Write_Stream_BE+0x3a>
    134c:	f7 01       	movw	r30, r14
    134e:	80 81       	ld	r24, Z
    1350:	91 81       	ldd	r25, Z+1	; 0x01
    1352:	08 1b       	sub	r16, r24
    1354:	19 0b       	sbc	r17, r25
    1356:	c8 1b       	sub	r28, r24
    1358:	d9 0b       	sbc	r29, r25
    135a:	c1 2c       	mov	r12, r1
    135c:	d1 2c       	mov	r13, r1
    135e:	01 15       	cp	r16, r1
    1360:	11 05       	cpc	r17, r1
    1362:	21 f1       	breq	.+72     	; 0x13ac <Endpoint_Write_Stream_BE+0x8c>
    1364:	80 91 e8 00 	lds	r24, 0x00E8	; 0x8000e8 <__TEXT_REGION_LENGTH__+0x7f80e8>
    1368:	85 fd       	sbrc	r24, 5
    136a:	16 c0       	rjmp	.+44     	; 0x1398 <Endpoint_Write_Stream_BE+0x78>
    136c:	80 91 e8 00 	lds	r24, 0x00E8	; 0x8000e8 <__TEXT_REGION_LENGTH__+0x7f80e8>
    1370:	8e 77       	andi	r24, 0x7E	; 126
    1372:	80 93 e8 00 	sts	0x00E8, r24	; 0x8000e8 <__TEXT_REGION_LENGTH__+0x7f80e8>
    1376:	e1 14       	cp	r14, r1
    1378:	f1 04       	cpc	r15, r1
    137a:	49 f0       	breq	.+18     	; 0x138e <Endpoint_Write_Stream_BE+0x6e>
    137c:	f7 01       	movw	r30, r14
    137e:	80 81       	ld	r24, Z
    1380:	91 81       	ldd	r25, Z+1	; 0x01
    1382:	c8 0e       	add	r12, r24
    1384:	d9 1e       	adc	r13, r25
    1386:	d1 82       	std	Z+1, r13	; 0x01
    1388:	c0 82       	st	Z, r12
    138a:	85 e0       	ldi	r24, 0x05	; 5
    138c:	10 c0       	rjmp	.+32     	; 0x13ae <Endpoint_Write_Stream_BE+0x8e>
    138e:	0e 94 9b 10 	call	0x2136	; 0x2136 <Endpoint_WaitUntilReady>
    1392:	88 23       	and	r24, r24
    1394:	21 f3       	breq	.-56     	; 0x135e <Endpoint_Write_Stream_BE+0x3e>
    1396:	0b c0       	rjmp	.+22     	; 0x13ae <Endpoint_Write_Stream_BE+0x8e>
    1398:	88 81       	ld	r24, Y
    139a:	80 93 f1 00 	sts	0x00F1, r24	; 0x8000f1 <__TEXT_REGION_LENGTH__+0x7f80f1>
    139e:	21 97       	sbiw	r28, 0x01	; 1
    13a0:	01 50       	subi	r16, 0x01	; 1
    13a2:	11 09       	sbc	r17, r1
    13a4:	ff ef       	ldi	r31, 0xFF	; 255
    13a6:	cf 1a       	sub	r12, r31
    13a8:	df 0a       	sbc	r13, r31
    13aa:	d9 cf       	rjmp	.-78     	; 0x135e <Endpoint_Write_Stream_BE+0x3e>
    13ac:	80 e0       	ldi	r24, 0x00	; 0
    13ae:	df 91       	pop	r29
    13b0:	cf 91       	pop	r28
    13b2:	1f 91       	pop	r17
    13b4:	0f 91       	pop	r16
    13b6:	ff 90       	pop	r15
    13b8:	ef 90       	pop	r14
    13ba:	df 90       	pop	r13
    13bc:	cf 90       	pop	r12
    13be:	08 95       	ret

000013c0 <Endpoint_Read_Stream_LE>:
    13c0:	cf 92       	push	r12
    13c2:	df 92       	push	r13
    13c4:	ef 92       	push	r14
    13c6:	ff 92       	push	r15
    13c8:	0f 93       	push	r16
    13ca:	1f 93       	push	r17
    13cc:	cf 93       	push	r28
    13ce:	df 93       	push	r29
    13d0:	ec 01       	movw	r28, r24
    13d2:	8b 01       	movw	r16, r22
    13d4:	7a 01       	movw	r14, r20
    13d6:	0e 94 9b 10 	call	0x2136	; 0x2136 <Endpoint_WaitUntilReady>
    13da:	81 11       	cpse	r24, r1
    13dc:	33 c0       	rjmp	.+102    	; 0x1444 <Endpoint_Read_Stream_LE+0x84>
    13de:	e1 14       	cp	r14, r1
    13e0:	f1 04       	cpc	r15, r1
    13e2:	39 f0       	breq	.+14     	; 0x13f2 <Endpoint_Read_Stream_LE+0x32>
    13e4:	f7 01       	movw	r30, r14
    13e6:	80 81       	ld	r24, Z
    13e8:	91 81       	ldd	r25, Z+1	; 0x01
    13ea:	08 1b       	sub	r16, r24
    13ec:	19 0b       	sbc	r17, r25
    13ee:	c8 0f       	add	r28, r24
    13f0:	d9 1f       	adc	r29, r25
    13f2:	c1 2c       	mov	r12, r1
    13f4:	d1 2c       	mov	r13, r1
    13f6:	01 15       	cp	r16, r1
    13f8:	11 05       	cpc	r17, r1
    13fa:	19 f1       	breq	.+70     	; 0x1442 <Endpoint_Read_Stream_LE+0x82>
    13fc:	80 91 e8 00 	lds	r24, 0x00E8	; 0x8000e8 <__TEXT_REGION_LENGTH__+0x7f80e8>
    1400:	85 fd       	sbrc	r24, 5
    1402:	16 c0       	rjmp	.+44     	; 0x1430 <Endpoint_Read_Stream_LE+0x70>
    1404:	80 91 e8 00 	lds	r24, 0x00E8	; 0x8000e8 <__TEXT_REGION_LENGTH__+0x7f80e8>
    1408:	8b 77       	andi	r24, 0x7B	; 123
    140a:	80 93 e8 00 	sts	0x00E8, r24	; 0x8000e8 <__TEXT_REGION_LENGTH__+0x7f80e8>
    140e:	e1 14       	cp	r14, r1
    1410:	f1 04       	cpc	r15, r1
    1412:	49 f0       	breq	.+18     	; 0x1426 <Endpoint_Read_Stream_LE+0x66>
    1414:	f7 01       	movw	r30, r14
    1416:	80 81       	ld	r24, Z
    1418:	91 81       	ldd	r25, Z+1	; 0x01
    141a:	c8 0e       	add	r12, r24
    141c:	d9 1e       	adc	r13, r25
    141e:	d1 82       	std	Z+1, r13	; 0x01
    1420:	c0 82       	st	Z, r12
    1422:	85 e0       	ldi	r24, 0x05	; 5
    1424:	0f c0       	rjmp	.+30     	; 0x1444 <Endpoint_Read_Stream_LE+0x84>
    1426:	0e 94 9b 10 	call	0x2136	; 0x2136 <Endpoint_WaitUntilReady>
    142a:	88 23       	and	r24, r24
    142c:	21 f3       	breq	.-56     	; 0x13f6 <Endpoint_Read_Stream_LE+0x36>
    142e:	0a c0       	rjmp	.+20     	; 0x1444 <Endpoint_Read_Stream_LE+0x84>
    1430:	80 91 f1 00 	lds	r24, 0x00F1	; 0x8000f1 <__TEXT_REGION_LENGTH__+0x7f80f1>
    1434:	89 93       	st	Y+, r24
    1436:	01 50       	subi	r16, 0x01	; 1
    1438:	11 09       	sbc	r17, r1
    143a:	ff ef       	ldi	r31, 0xFF	; 255
    143c:	cf 1a       	sub	r12, r31
    143e:	df 0a       	sbc	r13, r31
    1440:	da cf       	rjmp	.-76     	; 0x13f6 <Endpoint_Read_Stream_LE+0x36>
    1442:	80 e0       	ldi	r24, 0x00	; 0
    1444:	df 91       	pop	r29
    1446:	cf 91       	pop	r28
    1448:	1f 91       	pop	r17
    144a:	0f 91       	pop	r16
    144c:	ff 90       	pop	r15
    144e:	ef 90       	pop	r14
    1450:	df 90       	pop	r13
    1452:	cf 90       	pop	r12
    1454:	08 95       	ret

00001456 <Endpoint_Read_Stream_BE>:
    1456:	cf 92       	push	r12
    1458:	df 92       	push	r13
    145a:	ef 92       	push	r14
    145c:	ff 92       	push	r15
    145e:	0f 93       	push	r16
    1460:	1f 93       	push	r17
    1462:	cf 93       	push	r28
    1464:	df 93       	push	r29
    1466:	ec 01       	movw	r28, r24
    1468:	8b 01       	movw	r16, r22
    146a:	7a 01       	movw	r14, r20
    146c:	0e 94 9b 10 	call	0x2136	; 0x2136 <Endpoint_WaitUntilReady>
    1470:	81 11       	cpse	r24, r1
    1472:	38 c0       	rjmp	.+112    	; 0x14e4 <Endpoint_Read_Stream_BE+0x8e>
    1474:	c8 01       	movw	r24, r16
    1476:	01 97       	sbiw	r24, 0x01	; 1
    1478:	c8 0f       	add	r28, r24
    147a:	d9 1f       	adc	r29, r25
    147c:	e1 14       	cp	r14, r1
    147e:	f1 04       	cpc	r15, r1
    1480:	39 f0       	breq	.+14     	; 0x1490 <Endpoint_Read_Stream_BE+0x3a>
    1482:	f7 01       	movw	r30, r14
    1484:	80 81       	ld	r24, Z
    1486:	91 81       	ldd	r25, Z+1	; 0x01
    1488:	08 1b       	sub	r16, r24
    148a:	19 0b       	sbc	r17, r25
    148c:	c8 1b       	sub	r28, r24
    148e:	d9 0b       	sbc	r29, r25
    1490:	c1 2c       	mov	r12, r1
    1492:	d1 2c       	mov	r13, r1
    1494:	01 15       	cp	r16, r1
    1496:	11 05       	cpc	r17, r1
    1498:	21 f1       	breq	.+72     	; 0x14e2 <Endpoint_Read_Stream_BE+0x8c>
    149a:	80 91 e8 00 	lds	r24, 0x00E8	; 0x8000e8 <__TEXT_REGION_LENGTH__+0x7f80e8>
    149e:	85 fd       	sbrc	r24, 5
    14a0:	16 c0       	rjmp	.+44     	; 0x14ce <Endpoint_Read_Stream_BE+0x78>
    14a2:	80 91 e8 00 	lds	r24, 0x00E8	; 0x8000e8 <__TEXT_REGION_LENGTH__+0x7f80e8>
    14a6:	8b 77       	andi	r24, 0x7B	; 123
    14a8:	80 93 e8 00 	sts	0x00E8, r24	; 0x8000e8 <__TEXT_REGION_LENGTH__+0x7f80e8>
    14ac:	e1 14       	cp	r14, r1
    14ae:	f1 04       	cpc	r15, r1
    14b0:	49 f0       	breq	.+18     	; 0x14c4 <Endpoint_Read_Stream_BE+0x6e>
    14b2:	f7 01       	movw	r30, r14
    14b4:	80 81       	ld	r24, Z
    14b6:	91 81       	ldd	r25, Z+1	; 0x01
    14b8:	c8 0e       	add	r12, r24
    14ba:	d9 1e       	adc	r13, r25
    14bc:	d1 82       	std	Z+1, r13	; 0x01
    14be:	c0 82       	st	Z, r12
    14c0:	85 e0       	ldi	r24, 0x05	; 5
    14c2:	10 c0       	rjmp	.+32     	; 0x14e4 <Endpoint_Read_Stream_BE+0x8e>
    14c4:	0e 94 9b 10 	call	0x2136	; 0x2136 <Endpoint_WaitUntilReady>
    14c8:	88 23       	and	r24, r24
    14ca:	21 f3       	breq	.-56     	; 0x1494 <Endpoint_Read_Stream_BE+0x3e>
    14cc:	0b c0       	rjmp	.+22     	; 0x14e4 <Endpoint_Read_Stream_BE+0x8e>
    14ce:	80 91 f1 00 	lds	r24, 0x00F1	; 0x8000f1 <__TEXT_REGION_LENGTH__+0x7f80f1>
    14d2:	88 83       	st	Y, r24
    14d4:	21 97       	sbiw	r28, 0x01	; 1
    14d6:	01 50       	subi	r16, 0x01	; 1
    14d8:	11 09       	sbc	r17, r1
    14da:	ff ef       	ldi	r31, 0xFF	; 255
    14dc:	cf 1a       	sub	r12, r31
    14de:	df 0a       	sbc	r13, r31
    14e0:	d9 cf       	rjmp	.-78     	; 0x1494 <Endpoint_Read_Stream_BE+0x3e>
    14e2:	80 e0       	ldi	r24, 0x00	; 0
    14e4:	df 91       	pop	r29
    14e6:	cf 91       	pop	r28
    14e8:	1f 91       	pop	r17
    14ea:	0f 91       	pop	r16
    14ec:	ff 90       	pop	r15
    14ee:	ef 90       	pop	r14
    14f0:	df 90       	pop	r13
    14f2:	cf 90       	pop	r12
    14f4:	08 95       	ret

000014f6 <Endpoint_Write_PStream_LE>:
    14f6:	cf 92       	push	r12
    14f8:	df 92       	push	r13
    14fa:	ef 92       	push	r14
    14fc:	ff 92       	push	r15
    14fe:	0f 93       	push	r16
    1500:	1f 93       	push	r17
    1502:	cf 93       	push	r28
    1504:	df 93       	push	r29
    1506:	ec 01       	movw	r28, r24
    1508:	8b 01       	movw	r16, r22
    150a:	7a 01       	movw	r14, r20
    150c:	0e 94 9b 10 	call	0x2136	; 0x2136 <Endpoint_WaitUntilReady>
    1510:	81 11       	cpse	r24, r1
    1512:	35 c0       	rjmp	.+106    	; 0x157e <Endpoint_Write_PStream_LE+0x88>
    1514:	e1 14       	cp	r14, r1
    1516:	f1 04       	cpc	r15, r1
    1518:	39 f0       	breq	.+14     	; 0x1528 <Endpoint_Write_PStream_LE+0x32>
    151a:	f7 01       	movw	r30, r14
    151c:	80 81       	ld	r24, Z
    151e:	91 81       	ldd	r25, Z+1	; 0x01
    1520:	08 1b       	sub	r16, r24
    1522:	19 0b       	sbc	r17, r25
    1524:	c8 0f       	add	r28, r24
    1526:	d9 1f       	adc	r29, r25
    1528:	c1 2c       	mov	r12, r1
    152a:	d1 2c       	mov	r13, r1
    152c:	01 15       	cp	r16, r1
    152e:	11 05       	cpc	r17, r1
    1530:	29 f1       	breq	.+74     	; 0x157c <Endpoint_Write_PStream_LE+0x86>
    1532:	80 91 e8 00 	lds	r24, 0x00E8	; 0x8000e8 <__TEXT_REGION_LENGTH__+0x7f80e8>
    1536:	85 fd       	sbrc	r24, 5
    1538:	16 c0       	rjmp	.+44     	; 0x1566 <Endpoint_Write_PStream_LE+0x70>
    153a:	80 91 e8 00 	lds	r24, 0x00E8	; 0x8000e8 <__TEXT_REGION_LENGTH__+0x7f80e8>
    153e:	8e 77       	andi	r24, 0x7E	; 126
    1540:	80 93 e8 00 	sts	0x00E8, r24	; 0x8000e8 <__TEXT_REGION_LENGTH__+0x7f80e8>
    1544:	e1 14       	cp	r14, r1
    1546:	f1 04       	cpc	r15, r1
    1548:	49 f0       	breq	.+18     	; 0x155c <Endpoint_Write_PStream_LE+0x66>
    154a:	f7 01       	movw	r30, r14
    154c:	80 81       	ld	r24, Z
    154e:	91 81       	ldd	r25, Z+1	; 0x01
    1550:	c8 0e       	add	r12, r24
    1552:	d9 1e       	adc	r13, r25
    1554:	d1 82       	std	Z+1, r13	; 0x01
    1556:	c0 82       	st	Z, r12
    1558:	85 e0       	ldi	r24, 0x05	; 5
    155a:	11 c0       	rjmp	.+34     	; 0x157e <Endpoint_Write_PStream_LE+0x88>
    155c:	0e 94 9b 10 	call	0x2136	; 0x2136 <Endpoint_WaitUntilReady>
    1560:	88 23       	and	r24, r24
    1562:	21 f3       	breq	.-56     	; 0x152c <Endpoint_Write_PStream_LE+0x36>
    1564:	0c c0       	rjmp	.+24     	; 0x157e <Endpoint_Write_PStream_LE+0x88>
    1566:	fe 01       	movw	r30, r28
    1568:	84 91       	lpm	r24, Z
    156a:	80 93 f1 00 	sts	0x00F1, r24	; 0x8000f1 <__TEXT_REGION_LENGTH__+0x7f80f1>
    156e:	21 96       	adiw	r28, 0x01	; 1
    1570:	01 50       	subi	r16, 0x01	; 1
    1572:	11 09       	sbc	r17, r1
    1574:	ff ef       	ldi	r31, 0xFF	; 255
    1576:	cf 1a       	sub	r12, r31
    1578:	df 0a       	sbc	r13, r31
    157a:	d8 cf       	rjmp	.-80     	; 0x152c <Endpoint_Write_PStream_LE+0x36>
    157c:	80 e0       	ldi	r24, 0x00	; 0
    157e:	df 91       	pop	r29
    1580:	cf 91       	pop	r28
    1582:	1f 91       	pop	r17
    1584:	0f 91       	pop	r16
    1586:	ff 90       	pop	r15
    1588:	ef 90       	pop	r14
    158a:	df 90       	pop	r13
    158c:	cf 90       	pop	r12
    158e:	08 95       	ret

00001590 <Endpoint_Write_PStream_BE>:
    1590:	cf 92       	push	r12
    1592:	df 92       	push	r13
    1594:	ef 92       	push	r14
    1596:	ff 92       	push	r15
    1598:	0f 93       	push	r16
    159a:	1f 93       	push	r17
    159c:	cf 93       	push	r28
    159e:	df 93       	push	r29
    15a0:	ec 01       	movw	r28, r24
    15a2:	8b 01       	movw	r16, r22
    15a4:	7a 01       	movw	r14, r20
    15a6:	0e 94 9b 10 	call	0x2136	; 0x2136 <Endpoint_WaitUntilReady>
    15aa:	81 11       	cpse	r24, r1
    15ac:	39 c0       	rjmp	.+114    	; 0x1620 <Endpoint_Write_PStream_BE+0x90>
    15ae:	c8 01       	movw	r24, r16
    15b0:	01 97       	sbiw	r24, 0x01	; 1
    15b2:	c8 0f       	add	r28, r24
    15b4:	d9 1f       	adc	r29, r25
    15b6:	e1 14       	cp	r14, r1
    15b8:	f1 04       	cpc	r15, r1
    15ba:	39 f0       	breq	.+14     	; 0x15ca <Endpoint_Write_PStream_BE+0x3a>
    15bc:	f7 01       	movw	r30, r14
    15be:	80 81       	ld	r24, Z
    15c0:	91 81       	ldd	r25, Z+1	; 0x01
    15c2:	08 1b       	sub	r16, r24
    15c4:	19 0b       	sbc	r17, r25
    15c6:	c8 1b       	sub	r28, r24
    15c8:	d9 0b       	sbc	r29, r25
    15ca:	c1 2c       	mov	r12, r1
    15cc:	d1 2c       	mov	r13, r1
    15ce:	01 15       	cp	r16, r1
    15d0:	11 05       	cpc	r17, r1
    15d2:	29 f1       	breq	.+74     	; 0x161e <Endpoint_Write_PStream_BE+0x8e>
    15d4:	80 91 e8 00 	lds	r24, 0x00E8	; 0x8000e8 <__TEXT_REGION_LENGTH__+0x7f80e8>
    15d8:	85 fd       	sbrc	r24, 5
    15da:	16 c0       	rjmp	.+44     	; 0x1608 <Endpoint_Write_PStream_BE+0x78>
    15dc:	80 91 e8 00 	lds	r24, 0x00E8	; 0x8000e8 <__TEXT_REGION_LENGTH__+0x7f80e8>
    15e0:	8e 77       	andi	r24, 0x7E	; 126
    15e2:	80 93 e8 00 	sts	0x00E8, r24	; 0x8000e8 <__TEXT_REGION_LENGTH__+0x7f80e8>
    15e6:	e1 14       	cp	r14, r1
    15e8:	f1 04       	cpc	r15, r1
    15ea:	49 f0       	breq	.+18     	; 0x15fe <Endpoint_Write_PStream_BE+0x6e>
    15ec:	f7 01       	movw	r30, r14
    15ee:	80 81       	ld	r24, Z
    15f0:	91 81       	ldd	r25, Z+1	; 0x01
    15f2:	c8 0e       	add	r12, r24
    15f4:	d9 1e       	adc	r13, r25
    15f6:	d1 82       	std	Z+1, r13	; 0x01
    15f8:	c0 82       	st	Z, r12
    15fa:	85 e0       	ldi	r24, 0x05	; 5
    15fc:	11 c0       	rjmp	.+34     	; 0x1620 <Endpoint_Write_PStream_BE+0x90>
    15fe:	0e 94 9b 10 	call	0x2136	; 0x2136 <Endpoint_WaitUntilReady>
    1602:	88 23       	and	r24, r24
    1604:	21 f3       	breq	.-56     	; 0x15ce <Endpoint_Write_PStream_BE+0x3e>
    1606:	0c c0       	rjmp	.+24     	; 0x1620 <Endpoint_Write_PStream_BE+0x90>
    1608:	fe 01       	movw	r30, r28
    160a:	84 91       	lpm	r24, Z
    160c:	80 93 f1 00 	sts	0x00F1, r24	; 0x8000f1 <__TEXT_REGION_LENGTH__+0x7f80f1>
    1610:	21 97       	sbiw	r28, 0x01	; 1
    1612:	01 50       	subi	r16, 0x01	; 1
    1614:	11 09       	sbc	r17, r1
    1616:	ff ef       	ldi	r31, 0xFF	; 255
    1618:	cf 1a       	sub	r12, r31
    161a:	df 0a       	sbc	r13, r31
    161c:	d8 cf       	rjmp	.-80     	; 0x15ce <Endpoint_Write_PStream_BE+0x3e>
    161e:	80 e0       	ldi	r24, 0x00	; 0
    1620:	df 91       	pop	r29
    1622:	cf 91       	pop	r28
    1624:	1f 91       	pop	r17
    1626:	0f 91       	pop	r16
    1628:	ff 90       	pop	r15
    162a:	ef 90       	pop	r14
    162c:	df 90       	pop	r13
    162e:	cf 90       	pop	r12
    1630:	08 95       	ret

00001632 <Endpoint_Write_EStream_LE>:
    1632:	cf 92       	push	r12
    1634:	df 92       	push	r13
    1636:	ef 92       	push	r14
    1638:	ff 92       	push	r15
    163a:	0f 93       	push	r16
    163c:	1f 93       	push	r17
    163e:	cf 93       	push	r28
    1640:	df 93       	push	r29
    1642:	ec 01       	movw	r28, r24
    1644:	8b 01       	movw	r16, r22
    1646:	7a 01       	movw	r14, r20
    1648:	0e 94 9b 10 	call	0x2136	; 0x2136 <Endpoint_WaitUntilReady>
    164c:	81 11       	cpse	r24, r1
    164e:	36 c0       	rjmp	.+108    	; 0x16bc <Endpoint_Write_EStream_LE+0x8a>
    1650:	e1 14       	cp	r14, r1
    1652:	f1 04       	cpc	r15, r1
    1654:	39 f0       	breq	.+14     	; 0x1664 <Endpoint_Write_EStream_LE+0x32>
    1656:	f7 01       	movw	r30, r14
    1658:	80 81       	ld	r24, Z
    165a:	91 81       	ldd	r25, Z+1	; 0x01
    165c:	08 1b       	sub	r16, r24
    165e:	19 0b       	sbc	r17, r25
    1660:	c8 0f       	add	r28, r24
    1662:	d9 1f       	adc	r29, r25
    1664:	c1 2c       	mov	r12, r1
    1666:	d1 2c       	mov	r13, r1
    1668:	01 15       	cp	r16, r1
    166a:	11 05       	cpc	r17, r1
    166c:	31 f1       	breq	.+76     	; 0x16ba <Endpoint_Write_EStream_LE+0x88>
    166e:	80 91 e8 00 	lds	r24, 0x00E8	; 0x8000e8 <__TEXT_REGION_LENGTH__+0x7f80e8>
    1672:	85 fd       	sbrc	r24, 5
    1674:	16 c0       	rjmp	.+44     	; 0x16a2 <Endpoint_Write_EStream_LE+0x70>
    1676:	80 91 e8 00 	lds	r24, 0x00E8	; 0x8000e8 <__TEXT_REGION_LENGTH__+0x7f80e8>
    167a:	8e 77       	andi	r24, 0x7E	; 126
    167c:	80 93 e8 00 	sts	0x00E8, r24	; 0x8000e8 <__TEXT_REGION_LENGTH__+0x7f80e8>
    1680:	e1 14       	cp	r14, r1
    1682:	f1 04       	cpc	r15, r1
    1684:	49 f0       	breq	.+18     	; 0x1698 <Endpoint_Write_EStream_LE+0x66>
    1686:	f7 01       	movw	r30, r14
    1688:	80 81       	ld	r24, Z
    168a:	91 81       	ldd	r25, Z+1	; 0x01
    168c:	c8 0e       	add	r12, r24
    168e:	d9 1e       	adc	r13, r25
    1690:	d1 82       	std	Z+1, r13	; 0x01
    1692:	c0 82       	st	Z, r12
    1694:	85 e0       	ldi	r24, 0x05	; 5
    1696:	12 c0       	rjmp	.+36     	; 0x16bc <Endpoint_Write_EStream_LE+0x8a>
    1698:	0e 94 9b 10 	call	0x2136	; 0x2136 <Endpoint_WaitUntilReady>
    169c:	88 23       	and	r24, r24
    169e:	21 f3       	breq	.-56     	; 0x1668 <Endpoint_Write_EStream_LE+0x36>
    16a0:	0d c0       	rjmp	.+26     	; 0x16bc <Endpoint_Write_EStream_LE+0x8a>
    16a2:	ce 01       	movw	r24, r28
    16a4:	0e 94 70 15 	call	0x2ae0	; 0x2ae0 <eeprom_read_byte>
    16a8:	80 93 f1 00 	sts	0x00F1, r24	; 0x8000f1 <__TEXT_REGION_LENGTH__+0x7f80f1>
    16ac:	21 96       	adiw	r28, 0x01	; 1
    16ae:	01 50       	subi	r16, 0x01	; 1
    16b0:	11 09       	sbc	r17, r1
    16b2:	ff ef       	ldi	r31, 0xFF	; 255
    16b4:	cf 1a       	sub	r12, r31
    16b6:	df 0a       	sbc	r13, r31
    16b8:	d7 cf       	rjmp	.-82     	; 0x1668 <Endpoint_Write_EStream_LE+0x36>
    16ba:	80 e0       	ldi	r24, 0x00	; 0
    16bc:	df 91       	pop	r29
    16be:	cf 91       	pop	r28
    16c0:	1f 91       	pop	r17
    16c2:	0f 91       	pop	r16
    16c4:	ff 90       	pop	r15
    16c6:	ef 90       	pop	r14
    16c8:	df 90       	pop	r13
    16ca:	cf 90       	pop	r12
    16cc:	08 95       	ret

000016ce <Endpoint_Write_EStream_BE>:
    16ce:	cf 92       	push	r12
    16d0:	df 92       	push	r13
    16d2:	ef 92       	push	r14
    16d4:	ff 92       	push	r15
    16d6:	0f 93       	push	r16
    16d8:	1f 93       	push	r17
    16da:	cf 93       	push	r28
    16dc:	df 93       	push	r29
    16de:	ec 01       	movw	r28, r24
    16e0:	8b 01       	movw	r16, r22
    16e2:	7a 01       	movw	r14, r20
    16e4:	0e 94 9b 10 	call	0x2136	; 0x2136 <Endpoint_WaitUntilReady>
    16e8:	81 11       	cpse	r24, r1
    16ea:	3a c0       	rjmp	.+116    	; 0x1760 <Endpoint_Write_EStream_BE+0x92>
    16ec:	c8 01       	movw	r24, r16
    16ee:	01 97       	sbiw	r24, 0x01	; 1
    16f0:	c8 0f       	add	r28, r24
    16f2:	d9 1f       	adc	r29, r25
    16f4:	e1 14       	cp	r14, r1
    16f6:	f1 04       	cpc	r15, r1
    16f8:	39 f0       	breq	.+14     	; 0x1708 <Endpoint_Write_EStream_BE+0x3a>
    16fa:	f7 01       	movw	r30, r14
    16fc:	80 81       	ld	r24, Z
    16fe:	91 81       	ldd	r25, Z+1	; 0x01
    1700:	08 1b       	sub	r16, r24
    1702:	19 0b       	sbc	r17, r25
    1704:	c8 1b       	sub	r28, r24
    1706:	d9 0b       	sbc	r29, r25
    1708:	c1 2c       	mov	r12, r1
    170a:	d1 2c       	mov	r13, r1
    170c:	01 15       	cp	r16, r1
    170e:	11 05       	cpc	r17, r1
    1710:	31 f1       	breq	.+76     	; 0x175e <Endpoint_Write_EStream_BE+0x90>
    1712:	80 91 e8 00 	lds	r24, 0x00E8	; 0x8000e8 <__TEXT_REGION_LENGTH__+0x7f80e8>
    1716:	85 fd       	sbrc	r24, 5
    1718:	16 c0       	rjmp	.+44     	; 0x1746 <Endpoint_Write_EStream_BE+0x78>
    171a:	80 91 e8 00 	lds	r24, 0x00E8	; 0x8000e8 <__TEXT_REGION_LENGTH__+0x7f80e8>
    171e:	8e 77       	andi	r24, 0x7E	; 126
    1720:	80 93 e8 00 	sts	0x00E8, r24	; 0x8000e8 <__TEXT_REGION_LENGTH__+0x7f80e8>
    1724:	e1 14       	cp	r14, r1
    1726:	f1 04       	cpc	r15, r1
    1728:	49 f0       	breq	.+18     	; 0x173c <Endpoint_Write_EStream_BE+0x6e>
    172a:	f7 01       	movw	r30, r14
    172c:	80 81       	ld	r24, Z
    172e:	91 81       	ldd	r25, Z+1	; 0x01
    1730:	c8 0e       	add	r12, r24
    1732:	d9 1e       	adc	r13, r25
    1734:	d1 82       	std	Z+1, r13	; 0x01
    1736:	c0 82       	st	Z, r12
    1738:	85 e0       	ldi	r24, 0x05	; 5
    173a:	12 c0       	rjmp	.+36     	; 0x1760 <Endpoint_Write_EStream_BE+0x92>
    173c:	0e 94 9b 10 	call	0x2136	; 0x2136 <Endpoint_WaitUntilReady>
    1740:	88 23       	and	r24, r24
    1742:	21 f3       	breq	.-56     	; 0x170c <Endpoint_Write_EStream_BE+0x3e>
    1744:	0d c0       	rjmp	.+26     	; 0x1760 <Endpoint_Write_EStream_BE+0x92>
    1746:	ce 01       	movw	r24, r28
    1748:	0e 94 70 15 	call	0x2ae0	; 0x2ae0 <eeprom_read_byte>
    174c:	80 93 f1 00 	sts	0x00F1, r24	; 0x8000f1 <__TEXT_REGION_LENGTH__+0x7f80f1>
    1750:	21 97       	sbiw	r28, 0x01	; 1
    1752:	01 50       	subi	r16, 0x01	; 1
    1754:	11 09       	sbc	r17, r1
    1756:	ff ef       	ldi	r31, 0xFF	; 255
    1758:	cf 1a       	sub	r12, r31
    175a:	df 0a       	sbc	r13, r31
    175c:	d7 cf       	rjmp	.-82     	; 0x170c <Endpoint_Write_EStream_BE+0x3e>
    175e:	80 e0       	ldi	r24, 0x00	; 0
    1760:	df 91       	pop	r29
    1762:	cf 91       	pop	r28
    1764:	1f 91       	pop	r17
    1766:	0f 91       	pop	r16
    1768:	ff 90       	pop	r15
    176a:	ef 90       	pop	r14
    176c:	df 90       	pop	r13
    176e:	cf 90       	pop	r12
    1770:	08 95       	ret

00001772 <Endpoint_Read_EStream_LE>:
    1772:	cf 92       	push	r12
    1774:	df 92       	push	r13
    1776:	ef 92       	push	r14
    1778:	ff 92       	push	r15
    177a:	0f 93       	push	r16
    177c:	1f 93       	push	r17
    177e:	cf 93       	push	r28
    1780:	df 93       	push	r29
    1782:	ec 01       	movw	r28, r24
    1784:	8b 01       	movw	r16, r22
    1786:	7a 01       	movw	r14, r20
    1788:	0e 94 9b 10 	call	0x2136	; 0x2136 <Endpoint_WaitUntilReady>
    178c:	81 11       	cpse	r24, r1
    178e:	36 c0       	rjmp	.+108    	; 0x17fc <Endpoint_Read_EStream_LE+0x8a>
    1790:	e1 14       	cp	r14, r1
    1792:	f1 04       	cpc	r15, r1
    1794:	39 f0       	breq	.+14     	; 0x17a4 <Endpoint_Read_EStream_LE+0x32>
    1796:	f7 01       	movw	r30, r14
    1798:	80 81       	ld	r24, Z
    179a:	91 81       	ldd	r25, Z+1	; 0x01
    179c:	08 1b       	sub	r16, r24
    179e:	19 0b       	sbc	r17, r25
    17a0:	c8 0f       	add	r28, r24
    17a2:	d9 1f       	adc	r29, r25
    17a4:	c1 2c       	mov	r12, r1
    17a6:	d1 2c       	mov	r13, r1
    17a8:	01 15       	cp	r16, r1
    17aa:	11 05       	cpc	r17, r1
    17ac:	31 f1       	breq	.+76     	; 0x17fa <Endpoint_Read_EStream_LE+0x88>
    17ae:	80 91 e8 00 	lds	r24, 0x00E8	; 0x8000e8 <__TEXT_REGION_LENGTH__+0x7f80e8>
    17b2:	85 fd       	sbrc	r24, 5
    17b4:	16 c0       	rjmp	.+44     	; 0x17e2 <Endpoint_Read_EStream_LE+0x70>
    17b6:	80 91 e8 00 	lds	r24, 0x00E8	; 0x8000e8 <__TEXT_REGION_LENGTH__+0x7f80e8>
    17ba:	8b 77       	andi	r24, 0x7B	; 123
    17bc:	80 93 e8 00 	sts	0x00E8, r24	; 0x8000e8 <__TEXT_REGION_LENGTH__+0x7f80e8>
    17c0:	e1 14       	cp	r14, r1
    17c2:	f1 04       	cpc	r15, r1
    17c4:	49 f0       	breq	.+18     	; 0x17d8 <Endpoint_Read_EStream_LE+0x66>
    17c6:	f7 01       	movw	r30, r14
    17c8:	80 81       	ld	r24, Z
    17ca:	91 81       	ldd	r25, Z+1	; 0x01
    17cc:	c8 0e       	add	r12, r24
    17ce:	d9 1e       	adc	r13, r25
    17d0:	d1 82       	std	Z+1, r13	; 0x01
    17d2:	c0 82       	st	Z, r12
    17d4:	85 e0       	ldi	r24, 0x05	; 5
    17d6:	12 c0       	rjmp	.+36     	; 0x17fc <Endpoint_Read_EStream_LE+0x8a>
    17d8:	0e 94 9b 10 	call	0x2136	; 0x2136 <Endpoint_WaitUntilReady>
    17dc:	88 23       	and	r24, r24
    17de:	21 f3       	breq	.-56     	; 0x17a8 <Endpoint_Read_EStream_LE+0x36>
    17e0:	0d c0       	rjmp	.+26     	; 0x17fc <Endpoint_Read_EStream_LE+0x8a>
    17e2:	60 91 f1 00 	lds	r22, 0x00F1	; 0x8000f1 <__TEXT_REGION_LENGTH__+0x7f80f1>
    17e6:	ce 01       	movw	r24, r28
    17e8:	0e 94 78 15 	call	0x2af0	; 0x2af0 <eeprom_update_byte>
    17ec:	21 96       	adiw	r28, 0x01	; 1
    17ee:	01 50       	subi	r16, 0x01	; 1
    17f0:	11 09       	sbc	r17, r1
    17f2:	ff ef       	ldi	r31, 0xFF	; 255
    17f4:	cf 1a       	sub	r12, r31
    17f6:	df 0a       	sbc	r13, r31
    17f8:	d7 cf       	rjmp	.-82     	; 0x17a8 <Endpoint_Read_EStream_LE+0x36>
    17fa:	80 e0       	ldi	r24, 0x00	; 0
    17fc:	df 91       	pop	r29
    17fe:	cf 91       	pop	r28
    1800:	1f 91       	pop	r17
    1802:	0f 91       	pop	r16
    1804:	ff 90       	pop	r15
    1806:	ef 90       	pop	r14
    1808:	df 90       	pop	r13
    180a:	cf 90       	pop	r12
    180c:	08 95       	ret

0000180e <Endpoint_Read_EStream_BE>:
    180e:	cf 92       	push	r12
    1810:	df 92       	push	r13
    1812:	ef 92       	push	r14
    1814:	ff 92       	push	r15
    1816:	0f 93       	push	r16
    1818:	1f 93       	push	r17
    181a:	cf 93       	push	r28
    181c:	df 93       	push	r29
    181e:	ec 01       	movw	r28, r24
    1820:	8b 01       	movw	r16, r22
    1822:	7a 01       	movw	r14, r20
    1824:	0e 94 9b 10 	call	0x2136	; 0x2136 <Endpoint_WaitUntilReady>
    1828:	81 11       	cpse	r24, r1
    182a:	3a c0       	rjmp	.+116    	; 0x18a0 <Endpoint_Read_EStream_BE+0x92>
    182c:	c8 01       	movw	r24, r16
    182e:	01 97       	sbiw	r24, 0x01	; 1
    1830:	c8 0f       	add	r28, r24
    1832:	d9 1f       	adc	r29, r25
    1834:	e1 14       	cp	r14, r1
    1836:	f1 04       	cpc	r15, r1
    1838:	39 f0       	breq	.+14     	; 0x1848 <Endpoint_Read_EStream_BE+0x3a>
    183a:	f7 01       	movw	r30, r14
    183c:	80 81       	ld	r24, Z
    183e:	91 81       	ldd	r25, Z+1	; 0x01
    1840:	08 1b       	sub	r16, r24
    1842:	19 0b       	sbc	r17, r25
    1844:	c8 1b       	sub	r28, r24
    1846:	d9 0b       	sbc	r29, r25
    1848:	c1 2c       	mov	r12, r1
    184a:	d1 2c       	mov	r13, r1
    184c:	01 15       	cp	r16, r1
    184e:	11 05       	cpc	r17, r1
    1850:	31 f1       	breq	.+76     	; 0x189e <Endpoint_Read_EStream_BE+0x90>
    1852:	80 91 e8 00 	lds	r24, 0x00E8	; 0x8000e8 <__TEXT_REGION_LENGTH__+0x7f80e8>
    1856:	85 fd       	sbrc	r24, 5
    1858:	16 c0       	rjmp	.+44     	; 0x1886 <Endpoint_Read_EStream_BE+0x78>
    185a:	80 91 e8 00 	lds	r24, 0x00E8	; 0x8000e8 <__TEXT_REGION_LENGTH__+0x7f80e8>
    185e:	8b 77       	andi	r24, 0x7B	; 123
    1860:	80 93 e8 00 	sts	0x00E8, r24	; 0x8000e8 <__TEXT_REGION_LENGTH__+0x7f80e8>
    1864:	e1 14       	cp	r14, r1
    1866:	f1 04       	cpc	r15, r1
    1868:	49 f0       	breq	.+18     	; 0x187c <Endpoint_Read_EStream_BE+0x6e>
    186a:	f7 01       	movw	r30, r14
    186c:	80 81       	ld	r24, Z
    186e:	91 81       	ldd	r25, Z+1	; 0x01
    1870:	c8 0e       	add	r12, r24
    1872:	d9 1e       	adc	r13, r25
    1874:	d1 82       	std	Z+1, r13	; 0x01
    1876:	c0 82       	st	Z, r12
    1878:	85 e0       	ldi	r24, 0x05	; 5
    187a:	12 c0       	rjmp	.+36     	; 0x18a0 <Endpoint_Read_EStream_BE+0x92>
    187c:	0e 94 9b 10 	call	0x2136	; 0x2136 <Endpoint_WaitUntilReady>
    1880:	88 23       	and	r24, r24
    1882:	21 f3       	breq	.-56     	; 0x184c <Endpoint_Read_EStream_BE+0x3e>
    1884:	0d c0       	rjmp	.+26     	; 0x18a0 <Endpoint_Read_EStream_BE+0x92>
    1886:	60 91 f1 00 	lds	r22, 0x00F1	; 0x8000f1 <__TEXT_REGION_LENGTH__+0x7f80f1>
    188a:	ce 01       	movw	r24, r28
    188c:	0e 94 78 15 	call	0x2af0	; 0x2af0 <eeprom_update_byte>
    1890:	21 97       	sbiw	r28, 0x01	; 1
    1892:	01 50       	subi	r16, 0x01	; 1
    1894:	11 09       	sbc	r17, r1
    1896:	ff ef       	ldi	r31, 0xFF	; 255
    1898:	cf 1a       	sub	r12, r31
    189a:	df 0a       	sbc	r13, r31
    189c:	d7 cf       	rjmp	.-82     	; 0x184c <Endpoint_Read_EStream_BE+0x3e>
    189e:	80 e0       	ldi	r24, 0x00	; 0
    18a0:	df 91       	pop	r29
    18a2:	cf 91       	pop	r28
    18a4:	1f 91       	pop	r17
    18a6:	0f 91       	pop	r16
    18a8:	ff 90       	pop	r15
    18aa:	ef 90       	pop	r14
    18ac:	df 90       	pop	r13
    18ae:	cf 90       	pop	r12
    18b0:	08 95       	ret

000018b2 <Endpoint_Write_Control_Stream_LE>:
    18b2:	20 91 68 01 	lds	r18, 0x0168	; 0x800168 <USB_ControlRequest+0x6>
    18b6:	30 91 69 01 	lds	r19, 0x0169	; 0x800169 <USB_ControlRequest+0x7>
    18ba:	26 17       	cp	r18, r22
    18bc:	37 07       	cpc	r19, r23
    18be:	48 f0       	brcs	.+18     	; 0x18d2 <Endpoint_Write_Control_Stream_LE+0x20>
    18c0:	61 15       	cp	r22, r1
    18c2:	71 05       	cpc	r23, r1
    18c4:	39 f4       	brne	.+14     	; 0x18d4 <Endpoint_Write_Control_Stream_LE+0x22>
    18c6:	20 91 e8 00 	lds	r18, 0x00E8	; 0x8000e8 <__TEXT_REGION_LENGTH__+0x7f80e8>
    18ca:	2e 77       	andi	r18, 0x7E	; 126
    18cc:	20 93 e8 00 	sts	0x00E8, r18	; 0x8000e8 <__TEXT_REGION_LENGTH__+0x7f80e8>
    18d0:	01 c0       	rjmp	.+2      	; 0x18d4 <Endpoint_Write_Control_Stream_LE+0x22>
    18d2:	b9 01       	movw	r22, r18
    18d4:	fc 01       	movw	r30, r24
    18d6:	20 e0       	ldi	r18, 0x00	; 0
    18d8:	61 15       	cp	r22, r1
    18da:	71 05       	cpc	r23, r1
    18dc:	79 f1       	breq	.+94     	; 0x193c <Endpoint_Write_Control_Stream_LE+0x8a>
    18de:	80 91 61 01 	lds	r24, 0x0161	; 0x800161 <USB_DeviceState>
    18e2:	88 23       	and	r24, r24
    18e4:	f1 f1       	breq	.+124    	; 0x1962 <Endpoint_Write_Control_Stream_LE+0xb0>
    18e6:	85 30       	cpi	r24, 0x05	; 5
    18e8:	f1 f1       	breq	.+124    	; 0x1966 <Endpoint_Write_Control_Stream_LE+0xb4>
    18ea:	80 91 e8 00 	lds	r24, 0x00E8	; 0x8000e8 <__TEXT_REGION_LENGTH__+0x7f80e8>
    18ee:	83 fd       	sbrc	r24, 3
    18f0:	3c c0       	rjmp	.+120    	; 0x196a <Endpoint_Write_Control_Stream_LE+0xb8>
    18f2:	80 91 e8 00 	lds	r24, 0x00E8	; 0x8000e8 <__TEXT_REGION_LENGTH__+0x7f80e8>
    18f6:	82 fd       	sbrc	r24, 2
    18f8:	2e c0       	rjmp	.+92     	; 0x1956 <Endpoint_Write_Control_Stream_LE+0xa4>
    18fa:	80 91 e8 00 	lds	r24, 0x00E8	; 0x8000e8 <__TEXT_REGION_LENGTH__+0x7f80e8>
    18fe:	80 ff       	sbrs	r24, 0
    1900:	eb cf       	rjmp	.-42     	; 0x18d8 <Endpoint_Write_Control_Stream_LE+0x26>
    1902:	20 91 f3 00 	lds	r18, 0x00F3	; 0x8000f3 <__TEXT_REGION_LENGTH__+0x7f80f3>
    1906:	80 91 f2 00 	lds	r24, 0x00F2	; 0x8000f2 <__TEXT_REGION_LENGTH__+0x7f80f2>
    190a:	90 e0       	ldi	r25, 0x00	; 0
    190c:	92 2b       	or	r25, r18
    190e:	61 15       	cp	r22, r1
    1910:	71 05       	cpc	r23, r1
    1912:	51 f0       	breq	.+20     	; 0x1928 <Endpoint_Write_Control_Stream_LE+0x76>
    1914:	88 30       	cpi	r24, 0x08	; 8
    1916:	91 05       	cpc	r25, r1
    1918:	38 f4       	brcc	.+14     	; 0x1928 <Endpoint_Write_Control_Stream_LE+0x76>
    191a:	21 91       	ld	r18, Z+
    191c:	20 93 f1 00 	sts	0x00F1, r18	; 0x8000f1 <__TEXT_REGION_LENGTH__+0x7f80f1>
    1920:	61 50       	subi	r22, 0x01	; 1
    1922:	71 09       	sbc	r23, r1
    1924:	01 96       	adiw	r24, 0x01	; 1
    1926:	f3 cf       	rjmp	.-26     	; 0x190e <Endpoint_Write_Control_Stream_LE+0x5c>
    1928:	21 e0       	ldi	r18, 0x01	; 1
    192a:	08 97       	sbiw	r24, 0x08	; 8
    192c:	09 f0       	breq	.+2      	; 0x1930 <Endpoint_Write_Control_Stream_LE+0x7e>
    192e:	20 e0       	ldi	r18, 0x00	; 0
    1930:	80 91 e8 00 	lds	r24, 0x00E8	; 0x8000e8 <__TEXT_REGION_LENGTH__+0x7f80e8>
    1934:	8e 77       	andi	r24, 0x7E	; 126
    1936:	80 93 e8 00 	sts	0x00E8, r24	; 0x8000e8 <__TEXT_REGION_LENGTH__+0x7f80e8>
    193a:	ce cf       	rjmp	.-100    	; 0x18d8 <Endpoint_Write_Control_Stream_LE+0x26>
    193c:	21 11       	cpse	r18, r1
    193e:	cf cf       	rjmp	.-98     	; 0x18de <Endpoint_Write_Control_Stream_LE+0x2c>
    1940:	0a c0       	rjmp	.+20     	; 0x1956 <Endpoint_Write_Control_Stream_LE+0xa4>
    1942:	80 91 61 01 	lds	r24, 0x0161	; 0x800161 <USB_DeviceState>
    1946:	88 23       	and	r24, r24
    1948:	61 f0       	breq	.+24     	; 0x1962 <Endpoint_Write_Control_Stream_LE+0xb0>
    194a:	85 30       	cpi	r24, 0x05	; 5
    194c:	61 f0       	breq	.+24     	; 0x1966 <Endpoint_Write_Control_Stream_LE+0xb4>
    194e:	80 91 e8 00 	lds	r24, 0x00E8	; 0x8000e8 <__TEXT_REGION_LENGTH__+0x7f80e8>
    1952:	83 fd       	sbrc	r24, 3
    1954:	0a c0       	rjmp	.+20     	; 0x196a <Endpoint_Write_Control_Stream_LE+0xb8>
    1956:	80 91 e8 00 	lds	r24, 0x00E8	; 0x8000e8 <__TEXT_REGION_LENGTH__+0x7f80e8>
    195a:	82 ff       	sbrs	r24, 2
    195c:	f2 cf       	rjmp	.-28     	; 0x1942 <Endpoint_Write_Control_Stream_LE+0x90>
    195e:	80 e0       	ldi	r24, 0x00	; 0
    1960:	08 95       	ret
    1962:	82 e0       	ldi	r24, 0x02	; 2
    1964:	08 95       	ret
    1966:	83 e0       	ldi	r24, 0x03	; 3
    1968:	08 95       	ret
    196a:	81 e0       	ldi	r24, 0x01	; 1
    196c:	08 95       	ret

0000196e <Endpoint_Write_Control_Stream_BE>:
    196e:	9b 01       	movw	r18, r22
    1970:	21 50       	subi	r18, 0x01	; 1
    1972:	31 09       	sbc	r19, r1
    1974:	82 0f       	add	r24, r18
    1976:	93 1f       	adc	r25, r19
    1978:	20 91 68 01 	lds	r18, 0x0168	; 0x800168 <USB_ControlRequest+0x6>
    197c:	30 91 69 01 	lds	r19, 0x0169	; 0x800169 <USB_ControlRequest+0x7>
    1980:	26 17       	cp	r18, r22
    1982:	37 07       	cpc	r19, r23
    1984:	48 f0       	brcs	.+18     	; 0x1998 <Endpoint_Write_Control_Stream_BE+0x2a>
    1986:	61 15       	cp	r22, r1
    1988:	71 05       	cpc	r23, r1
    198a:	39 f4       	brne	.+14     	; 0x199a <Endpoint_Write_Control_Stream_BE+0x2c>
    198c:	20 91 e8 00 	lds	r18, 0x00E8	; 0x8000e8 <__TEXT_REGION_LENGTH__+0x7f80e8>
    1990:	2e 77       	andi	r18, 0x7E	; 126
    1992:	20 93 e8 00 	sts	0x00E8, r18	; 0x8000e8 <__TEXT_REGION_LENGTH__+0x7f80e8>
    1996:	01 c0       	rjmp	.+2      	; 0x199a <Endpoint_Write_Control_Stream_BE+0x2c>
    1998:	b9 01       	movw	r22, r18
    199a:	40 e0       	ldi	r20, 0x00	; 0
    199c:	61 15       	cp	r22, r1
    199e:	71 05       	cpc	r23, r1
    19a0:	a9 f1       	breq	.+106    	; 0x1a0c <Endpoint_Write_Control_Stream_BE+0x9e>
    19a2:	20 91 61 01 	lds	r18, 0x0161	; 0x800161 <USB_DeviceState>
    19a6:	22 23       	and	r18, r18
    19a8:	09 f4       	brne	.+2      	; 0x19ac <Endpoint_Write_Control_Stream_BE+0x3e>
    19aa:	43 c0       	rjmp	.+134    	; 0x1a32 <Endpoint_Write_Control_Stream_BE+0xc4>
    19ac:	25 30       	cpi	r18, 0x05	; 5
    19ae:	09 f4       	brne	.+2      	; 0x19b2 <Endpoint_Write_Control_Stream_BE+0x44>
    19b0:	42 c0       	rjmp	.+132    	; 0x1a36 <Endpoint_Write_Control_Stream_BE+0xc8>
    19b2:	20 91 e8 00 	lds	r18, 0x00E8	; 0x8000e8 <__TEXT_REGION_LENGTH__+0x7f80e8>
    19b6:	23 fd       	sbrc	r18, 3
    19b8:	40 c0       	rjmp	.+128    	; 0x1a3a <Endpoint_Write_Control_Stream_BE+0xcc>
    19ba:	20 91 e8 00 	lds	r18, 0x00E8	; 0x8000e8 <__TEXT_REGION_LENGTH__+0x7f80e8>
    19be:	22 fd       	sbrc	r18, 2
    19c0:	32 c0       	rjmp	.+100    	; 0x1a26 <Endpoint_Write_Control_Stream_BE+0xb8>
    19c2:	20 91 e8 00 	lds	r18, 0x00E8	; 0x8000e8 <__TEXT_REGION_LENGTH__+0x7f80e8>
    19c6:	20 ff       	sbrs	r18, 0
    19c8:	e9 cf       	rjmp	.-46     	; 0x199c <Endpoint_Write_Control_Stream_BE+0x2e>
    19ca:	40 91 f3 00 	lds	r20, 0x00F3	; 0x8000f3 <__TEXT_REGION_LENGTH__+0x7f80f3>
    19ce:	20 91 f2 00 	lds	r18, 0x00F2	; 0x8000f2 <__TEXT_REGION_LENGTH__+0x7f80f2>
    19d2:	30 e0       	ldi	r19, 0x00	; 0
    19d4:	34 2b       	or	r19, r20
    19d6:	61 15       	cp	r22, r1
    19d8:	71 05       	cpc	r23, r1
    19da:	69 f0       	breq	.+26     	; 0x19f6 <Endpoint_Write_Control_Stream_BE+0x88>
    19dc:	28 30       	cpi	r18, 0x08	; 8
    19de:	31 05       	cpc	r19, r1
    19e0:	50 f4       	brcc	.+20     	; 0x19f6 <Endpoint_Write_Control_Stream_BE+0x88>
    19e2:	fc 01       	movw	r30, r24
    19e4:	40 81       	ld	r20, Z
    19e6:	40 93 f1 00 	sts	0x00F1, r20	; 0x8000f1 <__TEXT_REGION_LENGTH__+0x7f80f1>
    19ea:	01 97       	sbiw	r24, 0x01	; 1
    19ec:	61 50       	subi	r22, 0x01	; 1
    19ee:	71 09       	sbc	r23, r1
    19f0:	2f 5f       	subi	r18, 0xFF	; 255
    19f2:	3f 4f       	sbci	r19, 0xFF	; 255
    19f4:	f0 cf       	rjmp	.-32     	; 0x19d6 <Endpoint_Write_Control_Stream_BE+0x68>
    19f6:	41 e0       	ldi	r20, 0x01	; 1
    19f8:	28 30       	cpi	r18, 0x08	; 8
    19fa:	31 05       	cpc	r19, r1
    19fc:	09 f0       	breq	.+2      	; 0x1a00 <Endpoint_Write_Control_Stream_BE+0x92>
    19fe:	40 e0       	ldi	r20, 0x00	; 0
    1a00:	20 91 e8 00 	lds	r18, 0x00E8	; 0x8000e8 <__TEXT_REGION_LENGTH__+0x7f80e8>
    1a04:	2e 77       	andi	r18, 0x7E	; 126
    1a06:	20 93 e8 00 	sts	0x00E8, r18	; 0x8000e8 <__TEXT_REGION_LENGTH__+0x7f80e8>
    1a0a:	c8 cf       	rjmp	.-112    	; 0x199c <Endpoint_Write_Control_Stream_BE+0x2e>
    1a0c:	41 11       	cpse	r20, r1
    1a0e:	c9 cf       	rjmp	.-110    	; 0x19a2 <Endpoint_Write_Control_Stream_BE+0x34>
    1a10:	0a c0       	rjmp	.+20     	; 0x1a26 <Endpoint_Write_Control_Stream_BE+0xb8>
    1a12:	80 91 61 01 	lds	r24, 0x0161	; 0x800161 <USB_DeviceState>
    1a16:	88 23       	and	r24, r24
    1a18:	61 f0       	breq	.+24     	; 0x1a32 <Endpoint_Write_Control_Stream_BE+0xc4>
    1a1a:	85 30       	cpi	r24, 0x05	; 5
    1a1c:	61 f0       	breq	.+24     	; 0x1a36 <Endpoint_Write_Control_Stream_BE+0xc8>
    1a1e:	80 91 e8 00 	lds	r24, 0x00E8	; 0x8000e8 <__TEXT_REGION_LENGTH__+0x7f80e8>
    1a22:	83 fd       	sbrc	r24, 3
    1a24:	0a c0       	rjmp	.+20     	; 0x1a3a <Endpoint_Write_Control_Stream_BE+0xcc>
    1a26:	80 91 e8 00 	lds	r24, 0x00E8	; 0x8000e8 <__TEXT_REGION_LENGTH__+0x7f80e8>
    1a2a:	82 ff       	sbrs	r24, 2
    1a2c:	f2 cf       	rjmp	.-28     	; 0x1a12 <Endpoint_Write_Control_Stream_BE+0xa4>
    1a2e:	80 e0       	ldi	r24, 0x00	; 0
    1a30:	08 95       	ret
    1a32:	82 e0       	ldi	r24, 0x02	; 2
    1a34:	08 95       	ret
    1a36:	83 e0       	ldi	r24, 0x03	; 3
    1a38:	08 95       	ret
    1a3a:	81 e0       	ldi	r24, 0x01	; 1
    1a3c:	08 95       	ret

00001a3e <Endpoint_Read_Control_Stream_LE>:
    1a3e:	61 15       	cp	r22, r1
    1a40:	71 05       	cpc	r23, r1
    1a42:	29 f4       	brne	.+10     	; 0x1a4e <Endpoint_Read_Control_Stream_LE+0x10>
    1a44:	20 91 e8 00 	lds	r18, 0x00E8	; 0x8000e8 <__TEXT_REGION_LENGTH__+0x7f80e8>
    1a48:	2b 77       	andi	r18, 0x7B	; 123
    1a4a:	20 93 e8 00 	sts	0x00E8, r18	; 0x8000e8 <__TEXT_REGION_LENGTH__+0x7f80e8>
    1a4e:	fc 01       	movw	r30, r24
    1a50:	61 15       	cp	r22, r1
    1a52:	71 05       	cpc	r23, r1
    1a54:	41 f1       	breq	.+80     	; 0x1aa6 <Endpoint_Read_Control_Stream_LE+0x68>
    1a56:	80 91 61 01 	lds	r24, 0x0161	; 0x800161 <USB_DeviceState>
    1a5a:	88 23       	and	r24, r24
    1a5c:	61 f1       	breq	.+88     	; 0x1ab6 <Endpoint_Read_Control_Stream_LE+0x78>
    1a5e:	85 30       	cpi	r24, 0x05	; 5
    1a60:	61 f1       	breq	.+88     	; 0x1aba <Endpoint_Read_Control_Stream_LE+0x7c>
    1a62:	80 91 e8 00 	lds	r24, 0x00E8	; 0x8000e8 <__TEXT_REGION_LENGTH__+0x7f80e8>
    1a66:	83 fd       	sbrc	r24, 3
    1a68:	24 c0       	rjmp	.+72     	; 0x1ab2 <Endpoint_Read_Control_Stream_LE+0x74>
    1a6a:	80 91 e8 00 	lds	r24, 0x00E8	; 0x8000e8 <__TEXT_REGION_LENGTH__+0x7f80e8>
    1a6e:	82 ff       	sbrs	r24, 2
    1a70:	ef cf       	rjmp	.-34     	; 0x1a50 <Endpoint_Read_Control_Stream_LE+0x12>
    1a72:	20 91 f3 00 	lds	r18, 0x00F3	; 0x8000f3 <__TEXT_REGION_LENGTH__+0x7f80f3>
    1a76:	80 91 f2 00 	lds	r24, 0x00F2	; 0x8000f2 <__TEXT_REGION_LENGTH__+0x7f80f2>
    1a7a:	90 e0       	ldi	r25, 0x00	; 0
    1a7c:	92 2b       	or	r25, r18
    1a7e:	89 2b       	or	r24, r25
    1a80:	31 f0       	breq	.+12     	; 0x1a8e <Endpoint_Read_Control_Stream_LE+0x50>
    1a82:	80 91 f1 00 	lds	r24, 0x00F1	; 0x8000f1 <__TEXT_REGION_LENGTH__+0x7f80f1>
    1a86:	81 93       	st	Z+, r24
    1a88:	61 50       	subi	r22, 0x01	; 1
    1a8a:	71 09       	sbc	r23, r1
    1a8c:	91 f7       	brne	.-28     	; 0x1a72 <Endpoint_Read_Control_Stream_LE+0x34>
    1a8e:	80 91 e8 00 	lds	r24, 0x00E8	; 0x8000e8 <__TEXT_REGION_LENGTH__+0x7f80e8>
    1a92:	8b 77       	andi	r24, 0x7B	; 123
    1a94:	80 93 e8 00 	sts	0x00E8, r24	; 0x8000e8 <__TEXT_REGION_LENGTH__+0x7f80e8>
    1a98:	db cf       	rjmp	.-74     	; 0x1a50 <Endpoint_Read_Control_Stream_LE+0x12>
    1a9a:	80 91 61 01 	lds	r24, 0x0161	; 0x800161 <USB_DeviceState>
    1a9e:	88 23       	and	r24, r24
    1aa0:	51 f0       	breq	.+20     	; 0x1ab6 <Endpoint_Read_Control_Stream_LE+0x78>
    1aa2:	85 30       	cpi	r24, 0x05	; 5
    1aa4:	51 f0       	breq	.+20     	; 0x1aba <Endpoint_Read_Control_Stream_LE+0x7c>
    1aa6:	80 91 e8 00 	lds	r24, 0x00E8	; 0x8000e8 <__TEXT_REGION_LENGTH__+0x7f80e8>
    1aaa:	80 ff       	sbrs	r24, 0
    1aac:	f6 cf       	rjmp	.-20     	; 0x1a9a <Endpoint_Read_Control_Stream_LE+0x5c>
    1aae:	80 e0       	ldi	r24, 0x00	; 0
    1ab0:	08 95       	ret
    1ab2:	81 e0       	ldi	r24, 0x01	; 1
    1ab4:	08 95       	ret
    1ab6:	82 e0       	ldi	r24, 0x02	; 2
    1ab8:	08 95       	ret
    1aba:	83 e0       	ldi	r24, 0x03	; 3
    1abc:	08 95       	ret

00001abe <Endpoint_Read_Control_Stream_BE>:
    1abe:	9b 01       	movw	r18, r22
    1ac0:	21 50       	subi	r18, 0x01	; 1
    1ac2:	31 09       	sbc	r19, r1
    1ac4:	82 0f       	add	r24, r18
    1ac6:	93 1f       	adc	r25, r19
    1ac8:	61 15       	cp	r22, r1
    1aca:	71 05       	cpc	r23, r1
    1acc:	29 f4       	brne	.+10     	; 0x1ad8 <Endpoint_Read_Control_Stream_BE+0x1a>
    1ace:	20 91 e8 00 	lds	r18, 0x00E8	; 0x8000e8 <__TEXT_REGION_LENGTH__+0x7f80e8>
    1ad2:	2b 77       	andi	r18, 0x7B	; 123
    1ad4:	20 93 e8 00 	sts	0x00E8, r18	; 0x8000e8 <__TEXT_REGION_LENGTH__+0x7f80e8>
    1ad8:	61 15       	cp	r22, r1
    1ada:	71 05       	cpc	r23, r1
    1adc:	29 f1       	breq	.+74     	; 0x1b28 <Endpoint_Read_Control_Stream_BE+0x6a>
    1ade:	20 91 61 01 	lds	r18, 0x0161	; 0x800161 <USB_DeviceState>
    1ae2:	22 23       	and	r18, r18
    1ae4:	49 f1       	breq	.+82     	; 0x1b38 <Endpoint_Read_Control_Stream_BE+0x7a>
    1ae6:	25 30       	cpi	r18, 0x05	; 5
    1ae8:	49 f1       	breq	.+82     	; 0x1b3c <Endpoint_Read_Control_Stream_BE+0x7e>
    1aea:	20 91 e8 00 	lds	r18, 0x00E8	; 0x8000e8 <__TEXT_REGION_LENGTH__+0x7f80e8>
    1aee:	23 fd       	sbrc	r18, 3
    1af0:	21 c0       	rjmp	.+66     	; 0x1b34 <Endpoint_Read_Control_Stream_BE+0x76>
    1af2:	20 91 e8 00 	lds	r18, 0x00E8	; 0x8000e8 <__TEXT_REGION_LENGTH__+0x7f80e8>
    1af6:	22 ff       	sbrs	r18, 2
    1af8:	ef cf       	rjmp	.-34     	; 0x1ad8 <Endpoint_Read_Control_Stream_BE+0x1a>
    1afa:	40 91 f3 00 	lds	r20, 0x00F3	; 0x8000f3 <__TEXT_REGION_LENGTH__+0x7f80f3>
    1afe:	20 91 f2 00 	lds	r18, 0x00F2	; 0x8000f2 <__TEXT_REGION_LENGTH__+0x7f80f2>
    1b02:	30 e0       	ldi	r19, 0x00	; 0
    1b04:	34 2b       	or	r19, r20
    1b06:	23 2b       	or	r18, r19
    1b08:	11 f3       	breq	.-60     	; 0x1ace <Endpoint_Read_Control_Stream_BE+0x10>
    1b0a:	20 91 f1 00 	lds	r18, 0x00F1	; 0x8000f1 <__TEXT_REGION_LENGTH__+0x7f80f1>
    1b0e:	fc 01       	movw	r30, r24
    1b10:	20 83       	st	Z, r18
    1b12:	01 97       	sbiw	r24, 0x01	; 1
    1b14:	61 50       	subi	r22, 0x01	; 1
    1b16:	71 09       	sbc	r23, r1
    1b18:	81 f7       	brne	.-32     	; 0x1afa <Endpoint_Read_Control_Stream_BE+0x3c>
    1b1a:	d9 cf       	rjmp	.-78     	; 0x1ace <Endpoint_Read_Control_Stream_BE+0x10>
    1b1c:	80 91 61 01 	lds	r24, 0x0161	; 0x800161 <USB_DeviceState>
    1b20:	88 23       	and	r24, r24
    1b22:	51 f0       	breq	.+20     	; 0x1b38 <Endpoint_Read_Control_Stream_BE+0x7a>
    1b24:	85 30       	cpi	r24, 0x05	; 5
    1b26:	51 f0       	breq	.+20     	; 0x1b3c <Endpoint_Read_Control_Stream_BE+0x7e>
    1b28:	80 91 e8 00 	lds	r24, 0x00E8	; 0x8000e8 <__TEXT_REGION_LENGTH__+0x7f80e8>
    1b2c:	80 ff       	sbrs	r24, 0
    1b2e:	f6 cf       	rjmp	.-20     	; 0x1b1c <Endpoint_Read_Control_Stream_BE+0x5e>
    1b30:	80 e0       	ldi	r24, 0x00	; 0
    1b32:	08 95       	ret
    1b34:	81 e0       	ldi	r24, 0x01	; 1
    1b36:	08 95       	ret
    1b38:	82 e0       	ldi	r24, 0x02	; 2
    1b3a:	08 95       	ret
    1b3c:	83 e0       	ldi	r24, 0x03	; 3
    1b3e:	08 95       	ret

00001b40 <Endpoint_Write_Control_PStream_LE>:
    1b40:	20 91 68 01 	lds	r18, 0x0168	; 0x800168 <USB_ControlRequest+0x6>
    1b44:	30 91 69 01 	lds	r19, 0x0169	; 0x800169 <USB_ControlRequest+0x7>
    1b48:	26 17       	cp	r18, r22
    1b4a:	37 07       	cpc	r19, r23
    1b4c:	48 f0       	brcs	.+18     	; 0x1b60 <Endpoint_Write_Control_PStream_LE+0x20>
    1b4e:	61 15       	cp	r22, r1
    1b50:	71 05       	cpc	r23, r1
    1b52:	39 f4       	brne	.+14     	; 0x1b62 <Endpoint_Write_Control_PStream_LE+0x22>
    1b54:	20 91 e8 00 	lds	r18, 0x00E8	; 0x8000e8 <__TEXT_REGION_LENGTH__+0x7f80e8>
    1b58:	2e 77       	andi	r18, 0x7E	; 126
    1b5a:	20 93 e8 00 	sts	0x00E8, r18	; 0x8000e8 <__TEXT_REGION_LENGTH__+0x7f80e8>
    1b5e:	01 c0       	rjmp	.+2      	; 0x1b62 <Endpoint_Write_Control_PStream_LE+0x22>
    1b60:	b9 01       	movw	r22, r18
    1b62:	fc 01       	movw	r30, r24
    1b64:	20 e0       	ldi	r18, 0x00	; 0
    1b66:	61 15       	cp	r22, r1
    1b68:	71 05       	cpc	r23, r1
    1b6a:	91 f1       	breq	.+100    	; 0x1bd0 <Endpoint_Write_Control_PStream_LE+0x90>
    1b6c:	80 91 61 01 	lds	r24, 0x0161	; 0x800161 <USB_DeviceState>
    1b70:	88 23       	and	r24, r24
    1b72:	09 f4       	brne	.+2      	; 0x1b76 <Endpoint_Write_Control_PStream_LE+0x36>
    1b74:	40 c0       	rjmp	.+128    	; 0x1bf6 <Endpoint_Write_Control_PStream_LE+0xb6>
    1b76:	85 30       	cpi	r24, 0x05	; 5
    1b78:	09 f4       	brne	.+2      	; 0x1b7c <Endpoint_Write_Control_PStream_LE+0x3c>
    1b7a:	3f c0       	rjmp	.+126    	; 0x1bfa <Endpoint_Write_Control_PStream_LE+0xba>
    1b7c:	80 91 e8 00 	lds	r24, 0x00E8	; 0x8000e8 <__TEXT_REGION_LENGTH__+0x7f80e8>
    1b80:	83 fd       	sbrc	r24, 3
    1b82:	3d c0       	rjmp	.+122    	; 0x1bfe <Endpoint_Write_Control_PStream_LE+0xbe>
    1b84:	80 91 e8 00 	lds	r24, 0x00E8	; 0x8000e8 <__TEXT_REGION_LENGTH__+0x7f80e8>
    1b88:	82 fd       	sbrc	r24, 2
    1b8a:	2f c0       	rjmp	.+94     	; 0x1bea <Endpoint_Write_Control_PStream_LE+0xaa>
    1b8c:	80 91 e8 00 	lds	r24, 0x00E8	; 0x8000e8 <__TEXT_REGION_LENGTH__+0x7f80e8>
    1b90:	80 ff       	sbrs	r24, 0
    1b92:	e9 cf       	rjmp	.-46     	; 0x1b66 <Endpoint_Write_Control_PStream_LE+0x26>
    1b94:	20 91 f3 00 	lds	r18, 0x00F3	; 0x8000f3 <__TEXT_REGION_LENGTH__+0x7f80f3>
    1b98:	80 91 f2 00 	lds	r24, 0x00F2	; 0x8000f2 <__TEXT_REGION_LENGTH__+0x7f80f2>
    1b9c:	90 e0       	ldi	r25, 0x00	; 0
    1b9e:	92 2b       	or	r25, r18
    1ba0:	61 15       	cp	r22, r1
    1ba2:	71 05       	cpc	r23, r1
    1ba4:	59 f0       	breq	.+22     	; 0x1bbc <Endpoint_Write_Control_PStream_LE+0x7c>
    1ba6:	88 30       	cpi	r24, 0x08	; 8
    1ba8:	91 05       	cpc	r25, r1
    1baa:	40 f4       	brcc	.+16     	; 0x1bbc <Endpoint_Write_Control_PStream_LE+0x7c>
    1bac:	24 91       	lpm	r18, Z
    1bae:	20 93 f1 00 	sts	0x00F1, r18	; 0x8000f1 <__TEXT_REGION_LENGTH__+0x7f80f1>
    1bb2:	31 96       	adiw	r30, 0x01	; 1
    1bb4:	61 50       	subi	r22, 0x01	; 1
    1bb6:	71 09       	sbc	r23, r1
    1bb8:	01 96       	adiw	r24, 0x01	; 1
    1bba:	f2 cf       	rjmp	.-28     	; 0x1ba0 <Endpoint_Write_Control_PStream_LE+0x60>
    1bbc:	21 e0       	ldi	r18, 0x01	; 1
    1bbe:	08 97       	sbiw	r24, 0x08	; 8
    1bc0:	09 f0       	breq	.+2      	; 0x1bc4 <Endpoint_Write_Control_PStream_LE+0x84>
    1bc2:	20 e0       	ldi	r18, 0x00	; 0
    1bc4:	80 91 e8 00 	lds	r24, 0x00E8	; 0x8000e8 <__TEXT_REGION_LENGTH__+0x7f80e8>
    1bc8:	8e 77       	andi	r24, 0x7E	; 126
    1bca:	80 93 e8 00 	sts	0x00E8, r24	; 0x8000e8 <__TEXT_REGION_LENGTH__+0x7f80e8>
    1bce:	cb cf       	rjmp	.-106    	; 0x1b66 <Endpoint_Write_Control_PStream_LE+0x26>
    1bd0:	21 11       	cpse	r18, r1
    1bd2:	cc cf       	rjmp	.-104    	; 0x1b6c <Endpoint_Write_Control_PStream_LE+0x2c>
    1bd4:	0a c0       	rjmp	.+20     	; 0x1bea <Endpoint_Write_Control_PStream_LE+0xaa>
    1bd6:	80 91 61 01 	lds	r24, 0x0161	; 0x800161 <USB_DeviceState>
    1bda:	88 23       	and	r24, r24
    1bdc:	61 f0       	breq	.+24     	; 0x1bf6 <Endpoint_Write_Control_PStream_LE+0xb6>
    1bde:	85 30       	cpi	r24, 0x05	; 5
    1be0:	61 f0       	breq	.+24     	; 0x1bfa <Endpoint_Write_Control_PStream_LE+0xba>
    1be2:	80 91 e8 00 	lds	r24, 0x00E8	; 0x8000e8 <__TEXT_REGION_LENGTH__+0x7f80e8>
    1be6:	83 fd       	sbrc	r24, 3
    1be8:	0a c0       	rjmp	.+20     	; 0x1bfe <Endpoint_Write_Control_PStream_LE+0xbe>
    1bea:	80 91 e8 00 	lds	r24, 0x00E8	; 0x8000e8 <__TEXT_REGION_LENGTH__+0x7f80e8>
    1bee:	82 ff       	sbrs	r24, 2
    1bf0:	f2 cf       	rjmp	.-28     	; 0x1bd6 <Endpoint_Write_Control_PStream_LE+0x96>
    1bf2:	80 e0       	ldi	r24, 0x00	; 0
    1bf4:	08 95       	ret
    1bf6:	82 e0       	ldi	r24, 0x02	; 2
    1bf8:	08 95       	ret
    1bfa:	83 e0       	ldi	r24, 0x03	; 3
    1bfc:	08 95       	ret
    1bfe:	81 e0       	ldi	r24, 0x01	; 1
    1c00:	08 95       	ret

00001c02 <Endpoint_Write_Control_PStream_BE>:
    1c02:	fb 01       	movw	r30, r22
    1c04:	31 97       	sbiw	r30, 0x01	; 1
    1c06:	8e 0f       	add	r24, r30
    1c08:	9f 1f       	adc	r25, r31
    1c0a:	20 91 68 01 	lds	r18, 0x0168	; 0x800168 <USB_ControlRequest+0x6>
    1c0e:	30 91 69 01 	lds	r19, 0x0169	; 0x800169 <USB_ControlRequest+0x7>
    1c12:	26 17       	cp	r18, r22
    1c14:	37 07       	cpc	r19, r23
    1c16:	48 f0       	brcs	.+18     	; 0x1c2a <Endpoint_Write_Control_PStream_BE+0x28>
    1c18:	61 15       	cp	r22, r1
    1c1a:	71 05       	cpc	r23, r1
    1c1c:	39 f4       	brne	.+14     	; 0x1c2c <Endpoint_Write_Control_PStream_BE+0x2a>
    1c1e:	20 91 e8 00 	lds	r18, 0x00E8	; 0x8000e8 <__TEXT_REGION_LENGTH__+0x7f80e8>
    1c22:	2e 77       	andi	r18, 0x7E	; 126
    1c24:	20 93 e8 00 	sts	0x00E8, r18	; 0x8000e8 <__TEXT_REGION_LENGTH__+0x7f80e8>
    1c28:	01 c0       	rjmp	.+2      	; 0x1c2c <Endpoint_Write_Control_PStream_BE+0x2a>
    1c2a:	b9 01       	movw	r22, r18
    1c2c:	40 e0       	ldi	r20, 0x00	; 0
    1c2e:	61 15       	cp	r22, r1
    1c30:	71 05       	cpc	r23, r1
    1c32:	a9 f1       	breq	.+106    	; 0x1c9e <Endpoint_Write_Control_PStream_BE+0x9c>
    1c34:	20 91 61 01 	lds	r18, 0x0161	; 0x800161 <USB_DeviceState>
    1c38:	22 23       	and	r18, r18
    1c3a:	09 f4       	brne	.+2      	; 0x1c3e <Endpoint_Write_Control_PStream_BE+0x3c>
    1c3c:	43 c0       	rjmp	.+134    	; 0x1cc4 <Endpoint_Write_Control_PStream_BE+0xc2>
    1c3e:	25 30       	cpi	r18, 0x05	; 5
    1c40:	09 f4       	brne	.+2      	; 0x1c44 <Endpoint_Write_Control_PStream_BE+0x42>
    1c42:	42 c0       	rjmp	.+132    	; 0x1cc8 <Endpoint_Write_Control_PStream_BE+0xc6>
    1c44:	20 91 e8 00 	lds	r18, 0x00E8	; 0x8000e8 <__TEXT_REGION_LENGTH__+0x7f80e8>
    1c48:	23 fd       	sbrc	r18, 3
    1c4a:	40 c0       	rjmp	.+128    	; 0x1ccc <Endpoint_Write_Control_PStream_BE+0xca>
    1c4c:	20 91 e8 00 	lds	r18, 0x00E8	; 0x8000e8 <__TEXT_REGION_LENGTH__+0x7f80e8>
    1c50:	22 fd       	sbrc	r18, 2
    1c52:	32 c0       	rjmp	.+100    	; 0x1cb8 <Endpoint_Write_Control_PStream_BE+0xb6>
    1c54:	20 91 e8 00 	lds	r18, 0x00E8	; 0x8000e8 <__TEXT_REGION_LENGTH__+0x7f80e8>
    1c58:	20 ff       	sbrs	r18, 0
    1c5a:	e9 cf       	rjmp	.-46     	; 0x1c2e <Endpoint_Write_Control_PStream_BE+0x2c>
    1c5c:	40 91 f3 00 	lds	r20, 0x00F3	; 0x8000f3 <__TEXT_REGION_LENGTH__+0x7f80f3>
    1c60:	20 91 f2 00 	lds	r18, 0x00F2	; 0x8000f2 <__TEXT_REGION_LENGTH__+0x7f80f2>
    1c64:	30 e0       	ldi	r19, 0x00	; 0
    1c66:	34 2b       	or	r19, r20
    1c68:	61 15       	cp	r22, r1
    1c6a:	71 05       	cpc	r23, r1
    1c6c:	69 f0       	breq	.+26     	; 0x1c88 <Endpoint_Write_Control_PStream_BE+0x86>
    1c6e:	28 30       	cpi	r18, 0x08	; 8
    1c70:	31 05       	cpc	r19, r1
    1c72:	50 f4       	brcc	.+20     	; 0x1c88 <Endpoint_Write_Control_PStream_BE+0x86>
    1c74:	fc 01       	movw	r30, r24
    1c76:	44 91       	lpm	r20, Z
    1c78:	40 93 f1 00 	sts	0x00F1, r20	; 0x8000f1 <__TEXT_REGION_LENGTH__+0x7f80f1>
    1c7c:	01 97       	sbiw	r24, 0x01	; 1
    1c7e:	61 50       	subi	r22, 0x01	; 1
    1c80:	71 09       	sbc	r23, r1
    1c82:	2f 5f       	subi	r18, 0xFF	; 255
    1c84:	3f 4f       	sbci	r19, 0xFF	; 255
    1c86:	f0 cf       	rjmp	.-32     	; 0x1c68 <Endpoint_Write_Control_PStream_BE+0x66>
    1c88:	41 e0       	ldi	r20, 0x01	; 1
    1c8a:	28 30       	cpi	r18, 0x08	; 8
    1c8c:	31 05       	cpc	r19, r1
    1c8e:	09 f0       	breq	.+2      	; 0x1c92 <Endpoint_Write_Control_PStream_BE+0x90>
    1c90:	40 e0       	ldi	r20, 0x00	; 0
    1c92:	20 91 e8 00 	lds	r18, 0x00E8	; 0x8000e8 <__TEXT_REGION_LENGTH__+0x7f80e8>
    1c96:	2e 77       	andi	r18, 0x7E	; 126
    1c98:	20 93 e8 00 	sts	0x00E8, r18	; 0x8000e8 <__TEXT_REGION_LENGTH__+0x7f80e8>
    1c9c:	c8 cf       	rjmp	.-112    	; 0x1c2e <Endpoint_Write_Control_PStream_BE+0x2c>
    1c9e:	41 11       	cpse	r20, r1
    1ca0:	c9 cf       	rjmp	.-110    	; 0x1c34 <Endpoint_Write_Control_PStream_BE+0x32>
    1ca2:	0a c0       	rjmp	.+20     	; 0x1cb8 <Endpoint_Write_Control_PStream_BE+0xb6>
    1ca4:	80 91 61 01 	lds	r24, 0x0161	; 0x800161 <USB_DeviceState>
    1ca8:	88 23       	and	r24, r24
    1caa:	61 f0       	breq	.+24     	; 0x1cc4 <Endpoint_Write_Control_PStream_BE+0xc2>
    1cac:	85 30       	cpi	r24, 0x05	; 5
    1cae:	61 f0       	breq	.+24     	; 0x1cc8 <Endpoint_Write_Control_PStream_BE+0xc6>
    1cb0:	80 91 e8 00 	lds	r24, 0x00E8	; 0x8000e8 <__TEXT_REGION_LENGTH__+0x7f80e8>
    1cb4:	83 fd       	sbrc	r24, 3
    1cb6:	0a c0       	rjmp	.+20     	; 0x1ccc <Endpoint_Write_Control_PStream_BE+0xca>
    1cb8:	80 91 e8 00 	lds	r24, 0x00E8	; 0x8000e8 <__TEXT_REGION_LENGTH__+0x7f80e8>
    1cbc:	82 ff       	sbrs	r24, 2
    1cbe:	f2 cf       	rjmp	.-28     	; 0x1ca4 <Endpoint_Write_Control_PStream_BE+0xa2>
    1cc0:	80 e0       	ldi	r24, 0x00	; 0
    1cc2:	08 95       	ret
    1cc4:	82 e0       	ldi	r24, 0x02	; 2
    1cc6:	08 95       	ret
    1cc8:	83 e0       	ldi	r24, 0x03	; 3
    1cca:	08 95       	ret
    1ccc:	81 e0       	ldi	r24, 0x01	; 1
    1cce:	08 95       	ret

00001cd0 <Endpoint_Write_Control_EStream_LE>:
    1cd0:	cf 92       	push	r12
    1cd2:	df 92       	push	r13
    1cd4:	ef 92       	push	r14
    1cd6:	ff 92       	push	r15
    1cd8:	0f 93       	push	r16
    1cda:	1f 93       	push	r17
    1cdc:	cf 93       	push	r28
    1cde:	df 93       	push	r29
    1ce0:	eb 01       	movw	r28, r22
    1ce2:	20 91 68 01 	lds	r18, 0x0168	; 0x800168 <USB_ControlRequest+0x6>
    1ce6:	30 91 69 01 	lds	r19, 0x0169	; 0x800169 <USB_ControlRequest+0x7>
    1cea:	26 17       	cp	r18, r22
    1cec:	37 07       	cpc	r19, r23
    1cee:	40 f0       	brcs	.+16     	; 0x1d00 <Endpoint_Write_Control_EStream_LE+0x30>
    1cf0:	20 97       	sbiw	r28, 0x00	; 0
    1cf2:	39 f4       	brne	.+14     	; 0x1d02 <Endpoint_Write_Control_EStream_LE+0x32>
    1cf4:	20 91 e8 00 	lds	r18, 0x00E8	; 0x8000e8 <__TEXT_REGION_LENGTH__+0x7f80e8>
    1cf8:	2e 77       	andi	r18, 0x7E	; 126
    1cfa:	20 93 e8 00 	sts	0x00E8, r18	; 0x8000e8 <__TEXT_REGION_LENGTH__+0x7f80e8>
    1cfe:	01 c0       	rjmp	.+2      	; 0x1d02 <Endpoint_Write_Control_EStream_LE+0x32>
    1d00:	e9 01       	movw	r28, r18
    1d02:	6c 01       	movw	r12, r24
    1d04:	20 e0       	ldi	r18, 0x00	; 0
    1d06:	20 97       	sbiw	r28, 0x00	; 0
    1d08:	e1 f1       	breq	.+120    	; 0x1d82 <Endpoint_Write_Control_EStream_LE+0xb2>
    1d0a:	80 91 61 01 	lds	r24, 0x0161	; 0x800161 <USB_DeviceState>
    1d0e:	88 23       	and	r24, r24
    1d10:	09 f4       	brne	.+2      	; 0x1d14 <Endpoint_Write_Control_EStream_LE+0x44>
    1d12:	4a c0       	rjmp	.+148    	; 0x1da8 <Endpoint_Write_Control_EStream_LE+0xd8>
    1d14:	85 30       	cpi	r24, 0x05	; 5
    1d16:	09 f4       	brne	.+2      	; 0x1d1a <Endpoint_Write_Control_EStream_LE+0x4a>
    1d18:	49 c0       	rjmp	.+146    	; 0x1dac <Endpoint_Write_Control_EStream_LE+0xdc>
    1d1a:	80 91 e8 00 	lds	r24, 0x00E8	; 0x8000e8 <__TEXT_REGION_LENGTH__+0x7f80e8>
    1d1e:	83 fd       	sbrc	r24, 3
    1d20:	47 c0       	rjmp	.+142    	; 0x1db0 <Endpoint_Write_Control_EStream_LE+0xe0>
    1d22:	80 91 e8 00 	lds	r24, 0x00E8	; 0x8000e8 <__TEXT_REGION_LENGTH__+0x7f80e8>
    1d26:	82 fd       	sbrc	r24, 2
    1d28:	39 c0       	rjmp	.+114    	; 0x1d9c <Endpoint_Write_Control_EStream_LE+0xcc>
    1d2a:	80 91 e8 00 	lds	r24, 0x00E8	; 0x8000e8 <__TEXT_REGION_LENGTH__+0x7f80e8>
    1d2e:	80 ff       	sbrs	r24, 0
    1d30:	ea cf       	rjmp	.-44     	; 0x1d06 <Endpoint_Write_Control_EStream_LE+0x36>
    1d32:	80 91 f3 00 	lds	r24, 0x00F3	; 0x8000f3 <__TEXT_REGION_LENGTH__+0x7f80f3>
    1d36:	00 91 f2 00 	lds	r16, 0x00F2	; 0x8000f2 <__TEXT_REGION_LENGTH__+0x7f80f2>
    1d3a:	10 e0       	ldi	r17, 0x00	; 0
    1d3c:	18 2b       	or	r17, r24
    1d3e:	78 01       	movw	r14, r16
    1d40:	c7 01       	movw	r24, r14
    1d42:	80 1b       	sub	r24, r16
    1d44:	91 0b       	sbc	r25, r17
    1d46:	8c 0d       	add	r24, r12
    1d48:	9d 1d       	adc	r25, r13
    1d4a:	20 97       	sbiw	r28, 0x00	; 0
    1d4c:	69 f0       	breq	.+26     	; 0x1d68 <Endpoint_Write_Control_EStream_LE+0x98>
    1d4e:	38 e0       	ldi	r19, 0x08	; 8
    1d50:	e3 16       	cp	r14, r19
    1d52:	f1 04       	cpc	r15, r1
    1d54:	48 f4       	brcc	.+18     	; 0x1d68 <Endpoint_Write_Control_EStream_LE+0x98>
    1d56:	0e 94 70 15 	call	0x2ae0	; 0x2ae0 <eeprom_read_byte>
    1d5a:	80 93 f1 00 	sts	0x00F1, r24	; 0x8000f1 <__TEXT_REGION_LENGTH__+0x7f80f1>
    1d5e:	21 97       	sbiw	r28, 0x01	; 1
    1d60:	2f ef       	ldi	r18, 0xFF	; 255
    1d62:	e2 1a       	sub	r14, r18
    1d64:	f2 0a       	sbc	r15, r18
    1d66:	ec cf       	rjmp	.-40     	; 0x1d40 <Endpoint_Write_Control_EStream_LE+0x70>
    1d68:	21 e0       	ldi	r18, 0x01	; 1
    1d6a:	38 e0       	ldi	r19, 0x08	; 8
    1d6c:	e3 16       	cp	r14, r19
    1d6e:	f1 04       	cpc	r15, r1
    1d70:	09 f0       	breq	.+2      	; 0x1d74 <Endpoint_Write_Control_EStream_LE+0xa4>
    1d72:	20 e0       	ldi	r18, 0x00	; 0
    1d74:	30 91 e8 00 	lds	r19, 0x00E8	; 0x8000e8 <__TEXT_REGION_LENGTH__+0x7f80e8>
    1d78:	3e 77       	andi	r19, 0x7E	; 126
    1d7a:	30 93 e8 00 	sts	0x00E8, r19	; 0x8000e8 <__TEXT_REGION_LENGTH__+0x7f80e8>
    1d7e:	6c 01       	movw	r12, r24
    1d80:	c2 cf       	rjmp	.-124    	; 0x1d06 <Endpoint_Write_Control_EStream_LE+0x36>
    1d82:	21 11       	cpse	r18, r1
    1d84:	c2 cf       	rjmp	.-124    	; 0x1d0a <Endpoint_Write_Control_EStream_LE+0x3a>
    1d86:	0a c0       	rjmp	.+20     	; 0x1d9c <Endpoint_Write_Control_EStream_LE+0xcc>
    1d88:	80 91 61 01 	lds	r24, 0x0161	; 0x800161 <USB_DeviceState>
    1d8c:	88 23       	and	r24, r24
    1d8e:	61 f0       	breq	.+24     	; 0x1da8 <Endpoint_Write_Control_EStream_LE+0xd8>
    1d90:	85 30       	cpi	r24, 0x05	; 5
    1d92:	61 f0       	breq	.+24     	; 0x1dac <Endpoint_Write_Control_EStream_LE+0xdc>
    1d94:	80 91 e8 00 	lds	r24, 0x00E8	; 0x8000e8 <__TEXT_REGION_LENGTH__+0x7f80e8>
    1d98:	83 fd       	sbrc	r24, 3
    1d9a:	0a c0       	rjmp	.+20     	; 0x1db0 <Endpoint_Write_Control_EStream_LE+0xe0>
    1d9c:	80 91 e8 00 	lds	r24, 0x00E8	; 0x8000e8 <__TEXT_REGION_LENGTH__+0x7f80e8>
    1da0:	82 ff       	sbrs	r24, 2
    1da2:	f2 cf       	rjmp	.-28     	; 0x1d88 <Endpoint_Write_Control_EStream_LE+0xb8>
    1da4:	80 e0       	ldi	r24, 0x00	; 0
    1da6:	05 c0       	rjmp	.+10     	; 0x1db2 <Endpoint_Write_Control_EStream_LE+0xe2>
    1da8:	82 e0       	ldi	r24, 0x02	; 2
    1daa:	03 c0       	rjmp	.+6      	; 0x1db2 <Endpoint_Write_Control_EStream_LE+0xe2>
    1dac:	83 e0       	ldi	r24, 0x03	; 3
    1dae:	01 c0       	rjmp	.+2      	; 0x1db2 <Endpoint_Write_Control_EStream_LE+0xe2>
    1db0:	81 e0       	ldi	r24, 0x01	; 1
    1db2:	df 91       	pop	r29
    1db4:	cf 91       	pop	r28
    1db6:	1f 91       	pop	r17
    1db8:	0f 91       	pop	r16
    1dba:	ff 90       	pop	r15
    1dbc:	ef 90       	pop	r14
    1dbe:	df 90       	pop	r13
    1dc0:	cf 90       	pop	r12
    1dc2:	08 95       	ret

00001dc4 <Endpoint_Write_Control_EStream_BE>:
    1dc4:	cf 92       	push	r12
    1dc6:	df 92       	push	r13
    1dc8:	ef 92       	push	r14
    1dca:	ff 92       	push	r15
    1dcc:	0f 93       	push	r16
    1dce:	1f 93       	push	r17
    1dd0:	cf 93       	push	r28
    1dd2:	df 93       	push	r29
    1dd4:	eb 01       	movw	r28, r22
    1dd6:	6b 01       	movw	r12, r22
    1dd8:	21 e0       	ldi	r18, 0x01	; 1
    1dda:	c2 1a       	sub	r12, r18
    1ddc:	d1 08       	sbc	r13, r1
    1dde:	c8 0e       	add	r12, r24
    1de0:	d9 1e       	adc	r13, r25
    1de2:	80 91 68 01 	lds	r24, 0x0168	; 0x800168 <USB_ControlRequest+0x6>
    1de6:	90 91 69 01 	lds	r25, 0x0169	; 0x800169 <USB_ControlRequest+0x7>
    1dea:	86 17       	cp	r24, r22
    1dec:	97 07       	cpc	r25, r23
    1dee:	40 f0       	brcs	.+16     	; 0x1e00 <Endpoint_Write_Control_EStream_BE+0x3c>
    1df0:	20 97       	sbiw	r28, 0x00	; 0
    1df2:	39 f4       	brne	.+14     	; 0x1e02 <Endpoint_Write_Control_EStream_BE+0x3e>
    1df4:	80 91 e8 00 	lds	r24, 0x00E8	; 0x8000e8 <__TEXT_REGION_LENGTH__+0x7f80e8>
    1df8:	8e 77       	andi	r24, 0x7E	; 126
    1dfa:	80 93 e8 00 	sts	0x00E8, r24	; 0x8000e8 <__TEXT_REGION_LENGTH__+0x7f80e8>
    1dfe:	01 c0       	rjmp	.+2      	; 0x1e02 <Endpoint_Write_Control_EStream_BE+0x3e>
    1e00:	ec 01       	movw	r28, r24
    1e02:	20 e0       	ldi	r18, 0x00	; 0
    1e04:	20 97       	sbiw	r28, 0x00	; 0
    1e06:	e9 f1       	breq	.+122    	; 0x1e82 <Endpoint_Write_Control_EStream_BE+0xbe>
    1e08:	80 91 61 01 	lds	r24, 0x0161	; 0x800161 <USB_DeviceState>
    1e0c:	88 23       	and	r24, r24
    1e0e:	09 f4       	brne	.+2      	; 0x1e12 <Endpoint_Write_Control_EStream_BE+0x4e>
    1e10:	4b c0       	rjmp	.+150    	; 0x1ea8 <Endpoint_Write_Control_EStream_BE+0xe4>
    1e12:	85 30       	cpi	r24, 0x05	; 5
    1e14:	09 f4       	brne	.+2      	; 0x1e18 <Endpoint_Write_Control_EStream_BE+0x54>
    1e16:	4a c0       	rjmp	.+148    	; 0x1eac <Endpoint_Write_Control_EStream_BE+0xe8>
    1e18:	80 91 e8 00 	lds	r24, 0x00E8	; 0x8000e8 <__TEXT_REGION_LENGTH__+0x7f80e8>
    1e1c:	83 fd       	sbrc	r24, 3
    1e1e:	48 c0       	rjmp	.+144    	; 0x1eb0 <Endpoint_Write_Control_EStream_BE+0xec>
    1e20:	80 91 e8 00 	lds	r24, 0x00E8	; 0x8000e8 <__TEXT_REGION_LENGTH__+0x7f80e8>
    1e24:	82 fd       	sbrc	r24, 2
    1e26:	3a c0       	rjmp	.+116    	; 0x1e9c <Endpoint_Write_Control_EStream_BE+0xd8>
    1e28:	80 91 e8 00 	lds	r24, 0x00E8	; 0x8000e8 <__TEXT_REGION_LENGTH__+0x7f80e8>
    1e2c:	80 ff       	sbrs	r24, 0
    1e2e:	ea cf       	rjmp	.-44     	; 0x1e04 <Endpoint_Write_Control_EStream_BE+0x40>
    1e30:	80 91 f3 00 	lds	r24, 0x00F3	; 0x8000f3 <__TEXT_REGION_LENGTH__+0x7f80f3>
    1e34:	00 91 f2 00 	lds	r16, 0x00F2	; 0x8000f2 <__TEXT_REGION_LENGTH__+0x7f80f2>
    1e38:	10 e0       	ldi	r17, 0x00	; 0
    1e3a:	18 2b       	or	r17, r24
    1e3c:	7e 01       	movw	r14, r28
    1e3e:	c7 01       	movw	r24, r14
    1e40:	8c 1b       	sub	r24, r28
    1e42:	9d 0b       	sbc	r25, r29
    1e44:	8c 0d       	add	r24, r12
    1e46:	9d 1d       	adc	r25, r13
    1e48:	e1 14       	cp	r14, r1
    1e4a:	f1 04       	cpc	r15, r1
    1e4c:	69 f0       	breq	.+26     	; 0x1e68 <Endpoint_Write_Control_EStream_BE+0xa4>
    1e4e:	08 30       	cpi	r16, 0x08	; 8
    1e50:	11 05       	cpc	r17, r1
    1e52:	50 f4       	brcc	.+20     	; 0x1e68 <Endpoint_Write_Control_EStream_BE+0xa4>
    1e54:	0e 94 70 15 	call	0x2ae0	; 0x2ae0 <eeprom_read_byte>
    1e58:	80 93 f1 00 	sts	0x00F1, r24	; 0x8000f1 <__TEXT_REGION_LENGTH__+0x7f80f1>
    1e5c:	81 e0       	ldi	r24, 0x01	; 1
    1e5e:	e8 1a       	sub	r14, r24
    1e60:	f1 08       	sbc	r15, r1
    1e62:	0f 5f       	subi	r16, 0xFF	; 255
    1e64:	1f 4f       	sbci	r17, 0xFF	; 255
    1e66:	eb cf       	rjmp	.-42     	; 0x1e3e <Endpoint_Write_Control_EStream_BE+0x7a>
    1e68:	21 e0       	ldi	r18, 0x01	; 1
    1e6a:	08 30       	cpi	r16, 0x08	; 8
    1e6c:	11 05       	cpc	r17, r1
    1e6e:	09 f0       	breq	.+2      	; 0x1e72 <Endpoint_Write_Control_EStream_BE+0xae>
    1e70:	20 e0       	ldi	r18, 0x00	; 0
    1e72:	30 91 e8 00 	lds	r19, 0x00E8	; 0x8000e8 <__TEXT_REGION_LENGTH__+0x7f80e8>
    1e76:	3e 77       	andi	r19, 0x7E	; 126
    1e78:	30 93 e8 00 	sts	0x00E8, r19	; 0x8000e8 <__TEXT_REGION_LENGTH__+0x7f80e8>
    1e7c:	6c 01       	movw	r12, r24
    1e7e:	e7 01       	movw	r28, r14
    1e80:	c1 cf       	rjmp	.-126    	; 0x1e04 <Endpoint_Write_Control_EStream_BE+0x40>
    1e82:	21 11       	cpse	r18, r1
    1e84:	c1 cf       	rjmp	.-126    	; 0x1e08 <Endpoint_Write_Control_EStream_BE+0x44>
    1e86:	0a c0       	rjmp	.+20     	; 0x1e9c <Endpoint_Write_Control_EStream_BE+0xd8>
    1e88:	80 91 61 01 	lds	r24, 0x0161	; 0x800161 <USB_DeviceState>
    1e8c:	88 23       	and	r24, r24
    1e8e:	61 f0       	breq	.+24     	; 0x1ea8 <Endpoint_Write_Control_EStream_BE+0xe4>
    1e90:	85 30       	cpi	r24, 0x05	; 5
    1e92:	61 f0       	breq	.+24     	; 0x1eac <Endpoint_Write_Control_EStream_BE+0xe8>
    1e94:	80 91 e8 00 	lds	r24, 0x00E8	; 0x8000e8 <__TEXT_REGION_LENGTH__+0x7f80e8>
    1e98:	83 fd       	sbrc	r24, 3
    1e9a:	0a c0       	rjmp	.+20     	; 0x1eb0 <Endpoint_Write_Control_EStream_BE+0xec>
    1e9c:	80 91 e8 00 	lds	r24, 0x00E8	; 0x8000e8 <__TEXT_REGION_LENGTH__+0x7f80e8>
    1ea0:	82 ff       	sbrs	r24, 2
    1ea2:	f2 cf       	rjmp	.-28     	; 0x1e88 <Endpoint_Write_Control_EStream_BE+0xc4>
    1ea4:	80 e0       	ldi	r24, 0x00	; 0
    1ea6:	05 c0       	rjmp	.+10     	; 0x1eb2 <Endpoint_Write_Control_EStream_BE+0xee>
    1ea8:	82 e0       	ldi	r24, 0x02	; 2
    1eaa:	03 c0       	rjmp	.+6      	; 0x1eb2 <Endpoint_Write_Control_EStream_BE+0xee>
    1eac:	83 e0       	ldi	r24, 0x03	; 3
    1eae:	01 c0       	rjmp	.+2      	; 0x1eb2 <Endpoint_Write_Control_EStream_BE+0xee>
    1eb0:	81 e0       	ldi	r24, 0x01	; 1
    1eb2:	df 91       	pop	r29
    1eb4:	cf 91       	pop	r28
    1eb6:	1f 91       	pop	r17
    1eb8:	0f 91       	pop	r16
    1eba:	ff 90       	pop	r15
    1ebc:	ef 90       	pop	r14
    1ebe:	df 90       	pop	r13
    1ec0:	cf 90       	pop	r12
    1ec2:	08 95       	ret

00001ec4 <Endpoint_Read_Control_EStream_LE>:
    1ec4:	0f 93       	push	r16
    1ec6:	1f 93       	push	r17
    1ec8:	cf 93       	push	r28
    1eca:	df 93       	push	r29
    1ecc:	eb 01       	movw	r28, r22
    1ece:	20 97       	sbiw	r28, 0x00	; 0
    1ed0:	29 f4       	brne	.+10     	; 0x1edc <Endpoint_Read_Control_EStream_LE+0x18>
    1ed2:	20 91 e8 00 	lds	r18, 0x00E8	; 0x8000e8 <__TEXT_REGION_LENGTH__+0x7f80e8>
    1ed6:	2b 77       	andi	r18, 0x7B	; 123
    1ed8:	20 93 e8 00 	sts	0x00E8, r18	; 0x8000e8 <__TEXT_REGION_LENGTH__+0x7f80e8>
    1edc:	8c 01       	movw	r16, r24
    1ede:	20 97       	sbiw	r28, 0x00	; 0
    1ee0:	59 f1       	breq	.+86     	; 0x1f38 <Endpoint_Read_Control_EStream_LE+0x74>
    1ee2:	80 91 61 01 	lds	r24, 0x0161	; 0x800161 <USB_DeviceState>
    1ee6:	88 23       	and	r24, r24
    1ee8:	79 f1       	breq	.+94     	; 0x1f48 <Endpoint_Read_Control_EStream_LE+0x84>
    1eea:	85 30       	cpi	r24, 0x05	; 5
    1eec:	79 f1       	breq	.+94     	; 0x1f4c <Endpoint_Read_Control_EStream_LE+0x88>
    1eee:	80 91 e8 00 	lds	r24, 0x00E8	; 0x8000e8 <__TEXT_REGION_LENGTH__+0x7f80e8>
    1ef2:	83 fd       	sbrc	r24, 3
    1ef4:	27 c0       	rjmp	.+78     	; 0x1f44 <Endpoint_Read_Control_EStream_LE+0x80>
    1ef6:	80 91 e8 00 	lds	r24, 0x00E8	; 0x8000e8 <__TEXT_REGION_LENGTH__+0x7f80e8>
    1efa:	82 ff       	sbrs	r24, 2
    1efc:	f0 cf       	rjmp	.-32     	; 0x1ede <Endpoint_Read_Control_EStream_LE+0x1a>
    1efe:	20 91 f3 00 	lds	r18, 0x00F3	; 0x8000f3 <__TEXT_REGION_LENGTH__+0x7f80f3>
    1f02:	80 91 f2 00 	lds	r24, 0x00F2	; 0x8000f2 <__TEXT_REGION_LENGTH__+0x7f80f2>
    1f06:	90 e0       	ldi	r25, 0x00	; 0
    1f08:	92 2b       	or	r25, r18
    1f0a:	89 2b       	or	r24, r25
    1f0c:	49 f0       	breq	.+18     	; 0x1f20 <Endpoint_Read_Control_EStream_LE+0x5c>
    1f0e:	60 91 f1 00 	lds	r22, 0x00F1	; 0x8000f1 <__TEXT_REGION_LENGTH__+0x7f80f1>
    1f12:	c8 01       	movw	r24, r16
    1f14:	0e 94 78 15 	call	0x2af0	; 0x2af0 <eeprom_update_byte>
    1f18:	0f 5f       	subi	r16, 0xFF	; 255
    1f1a:	1f 4f       	sbci	r17, 0xFF	; 255
    1f1c:	21 97       	sbiw	r28, 0x01	; 1
    1f1e:	79 f7       	brne	.-34     	; 0x1efe <Endpoint_Read_Control_EStream_LE+0x3a>
    1f20:	80 91 e8 00 	lds	r24, 0x00E8	; 0x8000e8 <__TEXT_REGION_LENGTH__+0x7f80e8>
    1f24:	8b 77       	andi	r24, 0x7B	; 123
    1f26:	80 93 e8 00 	sts	0x00E8, r24	; 0x8000e8 <__TEXT_REGION_LENGTH__+0x7f80e8>
    1f2a:	d9 cf       	rjmp	.-78     	; 0x1ede <Endpoint_Read_Control_EStream_LE+0x1a>
    1f2c:	80 91 61 01 	lds	r24, 0x0161	; 0x800161 <USB_DeviceState>
    1f30:	88 23       	and	r24, r24
    1f32:	51 f0       	breq	.+20     	; 0x1f48 <Endpoint_Read_Control_EStream_LE+0x84>
    1f34:	85 30       	cpi	r24, 0x05	; 5
    1f36:	51 f0       	breq	.+20     	; 0x1f4c <Endpoint_Read_Control_EStream_LE+0x88>
    1f38:	80 91 e8 00 	lds	r24, 0x00E8	; 0x8000e8 <__TEXT_REGION_LENGTH__+0x7f80e8>
    1f3c:	80 ff       	sbrs	r24, 0
    1f3e:	f6 cf       	rjmp	.-20     	; 0x1f2c <Endpoint_Read_Control_EStream_LE+0x68>
    1f40:	80 e0       	ldi	r24, 0x00	; 0
    1f42:	05 c0       	rjmp	.+10     	; 0x1f4e <Endpoint_Read_Control_EStream_LE+0x8a>
    1f44:	81 e0       	ldi	r24, 0x01	; 1
    1f46:	03 c0       	rjmp	.+6      	; 0x1f4e <Endpoint_Read_Control_EStream_LE+0x8a>
    1f48:	82 e0       	ldi	r24, 0x02	; 2
    1f4a:	01 c0       	rjmp	.+2      	; 0x1f4e <Endpoint_Read_Control_EStream_LE+0x8a>
    1f4c:	83 e0       	ldi	r24, 0x03	; 3
    1f4e:	df 91       	pop	r29
    1f50:	cf 91       	pop	r28
    1f52:	1f 91       	pop	r17
    1f54:	0f 91       	pop	r16
    1f56:	08 95       	ret

00001f58 <Endpoint_Read_Control_EStream_BE>:
    1f58:	0f 93       	push	r16
    1f5a:	1f 93       	push	r17
    1f5c:	cf 93       	push	r28
    1f5e:	df 93       	push	r29
    1f60:	eb 01       	movw	r28, r22
    1f62:	8b 01       	movw	r16, r22
    1f64:	01 50       	subi	r16, 0x01	; 1
    1f66:	11 09       	sbc	r17, r1
    1f68:	08 0f       	add	r16, r24
    1f6a:	19 1f       	adc	r17, r25
    1f6c:	20 97       	sbiw	r28, 0x00	; 0
    1f6e:	29 f4       	brne	.+10     	; 0x1f7a <Endpoint_Read_Control_EStream_BE+0x22>
    1f70:	80 91 e8 00 	lds	r24, 0x00E8	; 0x8000e8 <__TEXT_REGION_LENGTH__+0x7f80e8>
    1f74:	8b 77       	andi	r24, 0x7B	; 123
    1f76:	80 93 e8 00 	sts	0x00E8, r24	; 0x8000e8 <__TEXT_REGION_LENGTH__+0x7f80e8>
    1f7a:	20 97       	sbiw	r28, 0x00	; 0
    1f7c:	31 f1       	breq	.+76     	; 0x1fca <Endpoint_Read_Control_EStream_BE+0x72>
    1f7e:	80 91 61 01 	lds	r24, 0x0161	; 0x800161 <USB_DeviceState>
    1f82:	88 23       	and	r24, r24
    1f84:	51 f1       	breq	.+84     	; 0x1fda <Endpoint_Read_Control_EStream_BE+0x82>
    1f86:	85 30       	cpi	r24, 0x05	; 5
    1f88:	51 f1       	breq	.+84     	; 0x1fde <Endpoint_Read_Control_EStream_BE+0x86>
    1f8a:	80 91 e8 00 	lds	r24, 0x00E8	; 0x8000e8 <__TEXT_REGION_LENGTH__+0x7f80e8>
    1f8e:	83 fd       	sbrc	r24, 3
    1f90:	22 c0       	rjmp	.+68     	; 0x1fd6 <Endpoint_Read_Control_EStream_BE+0x7e>
    1f92:	80 91 e8 00 	lds	r24, 0x00E8	; 0x8000e8 <__TEXT_REGION_LENGTH__+0x7f80e8>
    1f96:	82 ff       	sbrs	r24, 2
    1f98:	f0 cf       	rjmp	.-32     	; 0x1f7a <Endpoint_Read_Control_EStream_BE+0x22>
    1f9a:	20 91 f3 00 	lds	r18, 0x00F3	; 0x8000f3 <__TEXT_REGION_LENGTH__+0x7f80f3>
    1f9e:	80 91 f2 00 	lds	r24, 0x00F2	; 0x8000f2 <__TEXT_REGION_LENGTH__+0x7f80f2>
    1fa2:	90 e0       	ldi	r25, 0x00	; 0
    1fa4:	92 2b       	or	r25, r18
    1fa6:	89 2b       	or	r24, r25
    1fa8:	19 f3       	breq	.-58     	; 0x1f70 <Endpoint_Read_Control_EStream_BE+0x18>
    1faa:	60 91 f1 00 	lds	r22, 0x00F1	; 0x8000f1 <__TEXT_REGION_LENGTH__+0x7f80f1>
    1fae:	c8 01       	movw	r24, r16
    1fb0:	0e 94 78 15 	call	0x2af0	; 0x2af0 <eeprom_update_byte>
    1fb4:	01 50       	subi	r16, 0x01	; 1
    1fb6:	11 09       	sbc	r17, r1
    1fb8:	21 97       	sbiw	r28, 0x01	; 1
    1fba:	79 f7       	brne	.-34     	; 0x1f9a <Endpoint_Read_Control_EStream_BE+0x42>
    1fbc:	d9 cf       	rjmp	.-78     	; 0x1f70 <Endpoint_Read_Control_EStream_BE+0x18>
    1fbe:	80 91 61 01 	lds	r24, 0x0161	; 0x800161 <USB_DeviceState>
    1fc2:	88 23       	and	r24, r24
    1fc4:	51 f0       	breq	.+20     	; 0x1fda <Endpoint_Read_Control_EStream_BE+0x82>
    1fc6:	85 30       	cpi	r24, 0x05	; 5
    1fc8:	51 f0       	breq	.+20     	; 0x1fde <Endpoint_Read_Control_EStream_BE+0x86>
    1fca:	80 91 e8 00 	lds	r24, 0x00E8	; 0x8000e8 <__TEXT_REGION_LENGTH__+0x7f80e8>
    1fce:	80 ff       	sbrs	r24, 0
    1fd0:	f6 cf       	rjmp	.-20     	; 0x1fbe <Endpoint_Read_Control_EStream_BE+0x66>
    1fd2:	80 e0       	ldi	r24, 0x00	; 0
    1fd4:	05 c0       	rjmp	.+10     	; 0x1fe0 <Endpoint_Read_Control_EStream_BE+0x88>
    1fd6:	81 e0       	ldi	r24, 0x01	; 1
    1fd8:	03 c0       	rjmp	.+6      	; 0x1fe0 <Endpoint_Read_Control_EStream_BE+0x88>
    1fda:	82 e0       	ldi	r24, 0x02	; 2
    1fdc:	01 c0       	rjmp	.+2      	; 0x1fe0 <Endpoint_Read_Control_EStream_BE+0x88>
    1fde:	83 e0       	ldi	r24, 0x03	; 3
    1fe0:	df 91       	pop	r29
    1fe2:	cf 91       	pop	r28
    1fe4:	1f 91       	pop	r17
    1fe6:	0f 91       	pop	r16
    1fe8:	08 95       	ret

00001fea <Endpoint_ConfigureEndpoint_Prv>:
    1fea:	98 2f       	mov	r25, r24
    1fec:	97 30       	cpi	r25, 0x07	; 7
    1fee:	68 f5       	brcc	.+90     	; 0x204a <Endpoint_ConfigureEndpoint_Prv+0x60>
    1ff0:	90 93 e9 00 	sts	0x00E9, r25	; 0x8000e9 <__TEXT_REGION_LENGTH__+0x7f80e9>
    1ff4:	98 17       	cp	r25, r24
    1ff6:	39 f0       	breq	.+14     	; 0x2006 <Endpoint_ConfigureEndpoint_Prv+0x1c>
    1ff8:	70 91 ec 00 	lds	r23, 0x00EC	; 0x8000ec <__TEXT_REGION_LENGTH__+0x7f80ec>
    1ffc:	20 91 ed 00 	lds	r18, 0x00ED	; 0x8000ed <__TEXT_REGION_LENGTH__+0x7f80ed>
    2000:	50 91 f0 00 	lds	r21, 0x00F0	; 0x8000f0 <__TEXT_REGION_LENGTH__+0x7f80f0>
    2004:	03 c0       	rjmp	.+6      	; 0x200c <Endpoint_ConfigureEndpoint_Prv+0x22>
    2006:	24 2f       	mov	r18, r20
    2008:	76 2f       	mov	r23, r22
    200a:	50 e0       	ldi	r21, 0x00	; 0
    200c:	21 fd       	sbrc	r18, 1
    200e:	02 c0       	rjmp	.+4      	; 0x2014 <Endpoint_ConfigureEndpoint_Prv+0x2a>
    2010:	9f 5f       	subi	r25, 0xFF	; 255
    2012:	ec cf       	rjmp	.-40     	; 0x1fec <Endpoint_ConfigureEndpoint_Prv+0x2>
    2014:	30 91 eb 00 	lds	r19, 0x00EB	; 0x8000eb <__TEXT_REGION_LENGTH__+0x7f80eb>
    2018:	3e 7f       	andi	r19, 0xFE	; 254
    201a:	30 93 eb 00 	sts	0x00EB, r19	; 0x8000eb <__TEXT_REGION_LENGTH__+0x7f80eb>
    201e:	30 91 ed 00 	lds	r19, 0x00ED	; 0x8000ed <__TEXT_REGION_LENGTH__+0x7f80ed>
    2022:	3d 7f       	andi	r19, 0xFD	; 253
    2024:	30 93 ed 00 	sts	0x00ED, r19	; 0x8000ed <__TEXT_REGION_LENGTH__+0x7f80ed>
    2028:	30 91 eb 00 	lds	r19, 0x00EB	; 0x8000eb <__TEXT_REGION_LENGTH__+0x7f80eb>
    202c:	31 60       	ori	r19, 0x01	; 1
    202e:	30 93 eb 00 	sts	0x00EB, r19	; 0x8000eb <__TEXT_REGION_LENGTH__+0x7f80eb>
    2032:	70 93 ec 00 	sts	0x00EC, r23	; 0x8000ec <__TEXT_REGION_LENGTH__+0x7f80ec>
    2036:	20 93 ed 00 	sts	0x00ED, r18	; 0x8000ed <__TEXT_REGION_LENGTH__+0x7f80ed>
    203a:	50 93 f0 00 	sts	0x00F0, r21	; 0x8000f0 <__TEXT_REGION_LENGTH__+0x7f80f0>
    203e:	20 91 ee 00 	lds	r18, 0x00EE	; 0x8000ee <__TEXT_REGION_LENGTH__+0x7f80ee>
    2042:	27 fd       	sbrc	r18, 7
    2044:	e5 cf       	rjmp	.-54     	; 0x2010 <Endpoint_ConfigureEndpoint_Prv+0x26>
    2046:	80 e0       	ldi	r24, 0x00	; 0
    2048:	08 95       	ret
    204a:	8f 70       	andi	r24, 0x0F	; 15
    204c:	80 93 e9 00 	sts	0x00E9, r24	; 0x8000e9 <__TEXT_REGION_LENGTH__+0x7f80e9>
    2050:	81 e0       	ldi	r24, 0x01	; 1
    2052:	08 95       	ret

00002054 <Endpoint_ConfigureEndpointTable>:
    2054:	0f 93       	push	r16
    2056:	1f 93       	push	r17
    2058:	cf 93       	push	r28
    205a:	df 93       	push	r29
    205c:	06 2f       	mov	r16, r22
    205e:	ec 01       	movw	r28, r24
    2060:	10 e0       	ldi	r17, 0x00	; 0
    2062:	10 17       	cp	r17, r16
    2064:	79 f1       	breq	.+94     	; 0x20c4 <Endpoint_ConfigureEndpointTable+0x70>
    2066:	68 81       	ld	r22, Y
    2068:	61 11       	cpse	r22, r1
    206a:	03 c0       	rjmp	.+6      	; 0x2072 <Endpoint_ConfigureEndpointTable+0x1e>
    206c:	1f 5f       	subi	r17, 0xFF	; 255
    206e:	25 96       	adiw	r28, 0x05	; 5
    2070:	f8 cf       	rjmp	.-16     	; 0x2062 <Endpoint_ConfigureEndpointTable+0xe>
    2072:	2c 81       	ldd	r18, Y+4	; 0x04
    2074:	a9 81       	ldd	r26, Y+1	; 0x01
    2076:	ba 81       	ldd	r27, Y+2	; 0x02
    2078:	9b 81       	ldd	r25, Y+3	; 0x03
    207a:	86 2f       	mov	r24, r22
    207c:	8f 70       	andi	r24, 0x0F	; 15
    207e:	87 30       	cpi	r24, 0x07	; 7
    2080:	10 f0       	brcs	.+4      	; 0x2086 <Endpoint_ConfigureEndpointTable+0x32>
    2082:	80 e0       	ldi	r24, 0x00	; 0
    2084:	20 c0       	rjmp	.+64     	; 0x20c6 <Endpoint_ConfigureEndpointTable+0x72>
    2086:	22 30       	cpi	r18, 0x02	; 2
    2088:	10 f4       	brcc	.+4      	; 0x208e <Endpoint_ConfigureEndpointTable+0x3a>
    208a:	42 e0       	ldi	r20, 0x02	; 2
    208c:	01 c0       	rjmp	.+2      	; 0x2090 <Endpoint_ConfigureEndpointTable+0x3c>
    208e:	46 e0       	ldi	r20, 0x06	; 6
    2090:	e8 e0       	ldi	r30, 0x08	; 8
    2092:	f0 e0       	ldi	r31, 0x00	; 0
    2094:	20 e0       	ldi	r18, 0x00	; 0
    2096:	ea 17       	cp	r30, r26
    2098:	fb 07       	cpc	r31, r27
    209a:	20 f4       	brcc	.+8      	; 0x20a4 <Endpoint_ConfigureEndpointTable+0x50>
    209c:	2f 5f       	subi	r18, 0xFF	; 255
    209e:	ee 0f       	add	r30, r30
    20a0:	ff 1f       	adc	r31, r31
    20a2:	f9 cf       	rjmp	.-14     	; 0x2096 <Endpoint_ConfigureEndpointTable+0x42>
    20a4:	22 95       	swap	r18
    20a6:	20 7f       	andi	r18, 0xF0	; 240
    20a8:	42 2b       	or	r20, r18
    20aa:	50 e4       	ldi	r21, 0x40	; 64
    20ac:	95 9f       	mul	r25, r21
    20ae:	90 01       	movw	r18, r0
    20b0:	11 24       	eor	r1, r1
    20b2:	66 1f       	adc	r22, r22
    20b4:	66 27       	eor	r22, r22
    20b6:	66 1f       	adc	r22, r22
    20b8:	62 2b       	or	r22, r18
    20ba:	0e 94 f5 0f 	call	0x1fea	; 0x1fea <Endpoint_ConfigureEndpoint_Prv>
    20be:	81 11       	cpse	r24, r1
    20c0:	d5 cf       	rjmp	.-86     	; 0x206c <Endpoint_ConfigureEndpointTable+0x18>
    20c2:	df cf       	rjmp	.-66     	; 0x2082 <Endpoint_ConfigureEndpointTable+0x2e>
    20c4:	81 e0       	ldi	r24, 0x01	; 1
    20c6:	df 91       	pop	r29
    20c8:	cf 91       	pop	r28
    20ca:	1f 91       	pop	r17
    20cc:	0f 91       	pop	r16
    20ce:	08 95       	ret

000020d0 <Endpoint_ClearEndpoints>:
    20d0:	10 92 f4 00 	sts	0x00F4, r1	; 0x8000f4 <__TEXT_REGION_LENGTH__+0x7f80f4>
    20d4:	80 e0       	ldi	r24, 0x00	; 0
    20d6:	80 93 e9 00 	sts	0x00E9, r24	; 0x8000e9 <__TEXT_REGION_LENGTH__+0x7f80e9>
    20da:	10 92 f0 00 	sts	0x00F0, r1	; 0x8000f0 <__TEXT_REGION_LENGTH__+0x7f80f0>
    20de:	10 92 e8 00 	sts	0x00E8, r1	; 0x8000e8 <__TEXT_REGION_LENGTH__+0x7f80e8>
    20e2:	10 92 ed 00 	sts	0x00ED, r1	; 0x8000ed <__TEXT_REGION_LENGTH__+0x7f80ed>
    20e6:	90 91 eb 00 	lds	r25, 0x00EB	; 0x8000eb <__TEXT_REGION_LENGTH__+0x7f80eb>
    20ea:	9e 7f       	andi	r25, 0xFE	; 254
    20ec:	90 93 eb 00 	sts	0x00EB, r25	; 0x8000eb <__TEXT_REGION_LENGTH__+0x7f80eb>
    20f0:	8f 5f       	subi	r24, 0xFF	; 255
    20f2:	87 30       	cpi	r24, 0x07	; 7
    20f4:	81 f7       	brne	.-32     	; 0x20d6 <Endpoint_ClearEndpoints+0x6>
    20f6:	08 95       	ret

000020f8 <Endpoint_ClearStatusStage>:
    20f8:	80 91 62 01 	lds	r24, 0x0162	; 0x800162 <USB_ControlRequest>
    20fc:	87 ff       	sbrs	r24, 7
    20fe:	11 c0       	rjmp	.+34     	; 0x2122 <Endpoint_ClearStatusStage+0x2a>
    2100:	80 91 e8 00 	lds	r24, 0x00E8	; 0x8000e8 <__TEXT_REGION_LENGTH__+0x7f80e8>
    2104:	82 fd       	sbrc	r24, 2
    2106:	05 c0       	rjmp	.+10     	; 0x2112 <Endpoint_ClearStatusStage+0x1a>
    2108:	80 91 61 01 	lds	r24, 0x0161	; 0x800161 <USB_DeviceState>
    210c:	81 11       	cpse	r24, r1
    210e:	f8 cf       	rjmp	.-16     	; 0x2100 <Endpoint_ClearStatusStage+0x8>
    2110:	11 c0       	rjmp	.+34     	; 0x2134 <Endpoint_ClearStatusStage+0x3c>
    2112:	80 91 e8 00 	lds	r24, 0x00E8	; 0x8000e8 <__TEXT_REGION_LENGTH__+0x7f80e8>
    2116:	8b 77       	andi	r24, 0x7B	; 123
    2118:	0b c0       	rjmp	.+22     	; 0x2130 <Endpoint_ClearStatusStage+0x38>
    211a:	80 91 61 01 	lds	r24, 0x0161	; 0x800161 <USB_DeviceState>
    211e:	88 23       	and	r24, r24
    2120:	49 f0       	breq	.+18     	; 0x2134 <Endpoint_ClearStatusStage+0x3c>
    2122:	80 91 e8 00 	lds	r24, 0x00E8	; 0x8000e8 <__TEXT_REGION_LENGTH__+0x7f80e8>
    2126:	80 ff       	sbrs	r24, 0
    2128:	f8 cf       	rjmp	.-16     	; 0x211a <Endpoint_ClearStatusStage+0x22>
    212a:	80 91 e8 00 	lds	r24, 0x00E8	; 0x8000e8 <__TEXT_REGION_LENGTH__+0x7f80e8>
    212e:	8e 77       	andi	r24, 0x7E	; 126
    2130:	80 93 e8 00 	sts	0x00E8, r24	; 0x8000e8 <__TEXT_REGION_LENGTH__+0x7f80e8>
    2134:	08 95       	ret

00002136 <Endpoint_WaitUntilReady>:
    2136:	20 91 e4 00 	lds	r18, 0x00E4	; 0x8000e4 <__TEXT_REGION_LENGTH__+0x7f80e4>
    213a:	30 91 e5 00 	lds	r19, 0x00E5	; 0x8000e5 <__TEXT_REGION_LENGTH__+0x7f80e5>
    213e:	95 e6       	ldi	r25, 0x65	; 101
    2140:	40 91 ec 00 	lds	r20, 0x00EC	; 0x8000ec <__TEXT_REGION_LENGTH__+0x7f80ec>
    2144:	84 2f       	mov	r24, r20
    2146:	81 70       	andi	r24, 0x01	; 1
    2148:	40 ff       	sbrs	r20, 0
    214a:	23 c0       	rjmp	.+70     	; 0x2192 <Endpoint_WaitUntilReady+0x5c>
    214c:	80 91 e8 00 	lds	r24, 0x00E8	; 0x8000e8 <__TEXT_REGION_LENGTH__+0x7f80e8>
    2150:	80 fd       	sbrc	r24, 0
    2152:	1d c0       	rjmp	.+58     	; 0x218e <Endpoint_WaitUntilReady+0x58>
    2154:	80 91 61 01 	lds	r24, 0x0161	; 0x800161 <USB_DeviceState>
    2158:	88 23       	and	r24, r24
    215a:	99 f0       	breq	.+38     	; 0x2182 <Endpoint_WaitUntilReady+0x4c>
    215c:	85 30       	cpi	r24, 0x05	; 5
    215e:	99 f0       	breq	.+38     	; 0x2186 <Endpoint_WaitUntilReady+0x50>
    2160:	80 91 eb 00 	lds	r24, 0x00EB	; 0x8000eb <__TEXT_REGION_LENGTH__+0x7f80eb>
    2164:	85 fd       	sbrc	r24, 5
    2166:	11 c0       	rjmp	.+34     	; 0x218a <Endpoint_WaitUntilReady+0x54>
    2168:	40 91 e4 00 	lds	r20, 0x00E4	; 0x8000e4 <__TEXT_REGION_LENGTH__+0x7f80e4>
    216c:	50 91 e5 00 	lds	r21, 0x00E5	; 0x8000e5 <__TEXT_REGION_LENGTH__+0x7f80e5>
    2170:	24 17       	cp	r18, r20
    2172:	35 07       	cpc	r19, r21
    2174:	29 f3       	breq	.-54     	; 0x2140 <Endpoint_WaitUntilReady+0xa>
    2176:	91 50       	subi	r25, 0x01	; 1
    2178:	11 f0       	breq	.+4      	; 0x217e <Endpoint_WaitUntilReady+0x48>
    217a:	9a 01       	movw	r18, r20
    217c:	e1 cf       	rjmp	.-62     	; 0x2140 <Endpoint_WaitUntilReady+0xa>
    217e:	84 e0       	ldi	r24, 0x04	; 4
    2180:	08 95       	ret
    2182:	82 e0       	ldi	r24, 0x02	; 2
    2184:	08 95       	ret
    2186:	83 e0       	ldi	r24, 0x03	; 3
    2188:	08 95       	ret
    218a:	81 e0       	ldi	r24, 0x01	; 1
    218c:	08 95       	ret
    218e:	80 e0       	ldi	r24, 0x00	; 0
    2190:	08 95       	ret
    2192:	40 91 e8 00 	lds	r20, 0x00E8	; 0x8000e8 <__TEXT_REGION_LENGTH__+0x7f80e8>
    2196:	42 ff       	sbrs	r20, 2
    2198:	dd cf       	rjmp	.-70     	; 0x2154 <Endpoint_WaitUntilReady+0x1e>
    219a:	08 95       	ret

0000219c <__subsf3>:
    219c:	50 58       	subi	r21, 0x80	; 128

0000219e <__addsf3>:
    219e:	bb 27       	eor	r27, r27
    21a0:	aa 27       	eor	r26, r26
    21a2:	0e 94 e6 10 	call	0x21cc	; 0x21cc <__addsf3x>
    21a6:	0c 94 e7 11 	jmp	0x23ce	; 0x23ce <__fp_round>
    21aa:	0e 94 d9 11 	call	0x23b2	; 0x23b2 <__fp_pscA>
    21ae:	38 f0       	brcs	.+14     	; 0x21be <__addsf3+0x20>
    21b0:	0e 94 e0 11 	call	0x23c0	; 0x23c0 <__fp_pscB>
    21b4:	20 f0       	brcs	.+8      	; 0x21be <__addsf3+0x20>
    21b6:	39 f4       	brne	.+14     	; 0x21c6 <__addsf3+0x28>
    21b8:	9f 3f       	cpi	r25, 0xFF	; 255
    21ba:	19 f4       	brne	.+6      	; 0x21c2 <__addsf3+0x24>
    21bc:	26 f4       	brtc	.+8      	; 0x21c6 <__addsf3+0x28>
    21be:	0c 94 d6 11 	jmp	0x23ac	; 0x23ac <__fp_nan>
    21c2:	0e f4       	brtc	.+2      	; 0x21c6 <__addsf3+0x28>
    21c4:	e0 95       	com	r30
    21c6:	e7 fb       	bst	r30, 7
    21c8:	0c 94 d0 11 	jmp	0x23a0	; 0x23a0 <__fp_inf>

000021cc <__addsf3x>:
    21cc:	e9 2f       	mov	r30, r25
    21ce:	0e 94 f8 11 	call	0x23f0	; 0x23f0 <__fp_split3>
    21d2:	58 f3       	brcs	.-42     	; 0x21aa <__addsf3+0xc>
    21d4:	ba 17       	cp	r27, r26
    21d6:	62 07       	cpc	r22, r18
    21d8:	73 07       	cpc	r23, r19
    21da:	84 07       	cpc	r24, r20
    21dc:	95 07       	cpc	r25, r21
    21de:	20 f0       	brcs	.+8      	; 0x21e8 <__addsf3x+0x1c>
    21e0:	79 f4       	brne	.+30     	; 0x2200 <__addsf3x+0x34>
    21e2:	a6 f5       	brtc	.+104    	; 0x224c <__addsf3x+0x80>
    21e4:	0c 94 1a 12 	jmp	0x2434	; 0x2434 <__fp_zero>
    21e8:	0e f4       	brtc	.+2      	; 0x21ec <__addsf3x+0x20>
    21ea:	e0 95       	com	r30
    21ec:	0b 2e       	mov	r0, r27
    21ee:	ba 2f       	mov	r27, r26
    21f0:	a0 2d       	mov	r26, r0
    21f2:	0b 01       	movw	r0, r22
    21f4:	b9 01       	movw	r22, r18
    21f6:	90 01       	movw	r18, r0
    21f8:	0c 01       	movw	r0, r24
    21fa:	ca 01       	movw	r24, r20
    21fc:	a0 01       	movw	r20, r0
    21fe:	11 24       	eor	r1, r1
    2200:	ff 27       	eor	r31, r31
    2202:	59 1b       	sub	r21, r25
    2204:	99 f0       	breq	.+38     	; 0x222c <__addsf3x+0x60>
    2206:	59 3f       	cpi	r21, 0xF9	; 249
    2208:	50 f4       	brcc	.+20     	; 0x221e <__addsf3x+0x52>
    220a:	50 3e       	cpi	r21, 0xE0	; 224
    220c:	68 f1       	brcs	.+90     	; 0x2268 <__addsf3x+0x9c>
    220e:	1a 16       	cp	r1, r26
    2210:	f0 40       	sbci	r31, 0x00	; 0
    2212:	a2 2f       	mov	r26, r18
    2214:	23 2f       	mov	r18, r19
    2216:	34 2f       	mov	r19, r20
    2218:	44 27       	eor	r20, r20
    221a:	58 5f       	subi	r21, 0xF8	; 248
    221c:	f3 cf       	rjmp	.-26     	; 0x2204 <__addsf3x+0x38>
    221e:	46 95       	lsr	r20
    2220:	37 95       	ror	r19
    2222:	27 95       	ror	r18
    2224:	a7 95       	ror	r26
    2226:	f0 40       	sbci	r31, 0x00	; 0
    2228:	53 95       	inc	r21
    222a:	c9 f7       	brne	.-14     	; 0x221e <__addsf3x+0x52>
    222c:	7e f4       	brtc	.+30     	; 0x224c <__addsf3x+0x80>
    222e:	1f 16       	cp	r1, r31
    2230:	ba 0b       	sbc	r27, r26
    2232:	62 0b       	sbc	r22, r18
    2234:	73 0b       	sbc	r23, r19
    2236:	84 0b       	sbc	r24, r20
    2238:	ba f0       	brmi	.+46     	; 0x2268 <__addsf3x+0x9c>
    223a:	91 50       	subi	r25, 0x01	; 1
    223c:	a1 f0       	breq	.+40     	; 0x2266 <__addsf3x+0x9a>
    223e:	ff 0f       	add	r31, r31
    2240:	bb 1f       	adc	r27, r27
    2242:	66 1f       	adc	r22, r22
    2244:	77 1f       	adc	r23, r23
    2246:	88 1f       	adc	r24, r24
    2248:	c2 f7       	brpl	.-16     	; 0x223a <__addsf3x+0x6e>
    224a:	0e c0       	rjmp	.+28     	; 0x2268 <__addsf3x+0x9c>
    224c:	ba 0f       	add	r27, r26
    224e:	62 1f       	adc	r22, r18
    2250:	73 1f       	adc	r23, r19
    2252:	84 1f       	adc	r24, r20
    2254:	48 f4       	brcc	.+18     	; 0x2268 <__addsf3x+0x9c>
    2256:	87 95       	ror	r24
    2258:	77 95       	ror	r23
    225a:	67 95       	ror	r22
    225c:	b7 95       	ror	r27
    225e:	f7 95       	ror	r31
    2260:	9e 3f       	cpi	r25, 0xFE	; 254
    2262:	08 f0       	brcs	.+2      	; 0x2266 <__addsf3x+0x9a>
    2264:	b0 cf       	rjmp	.-160    	; 0x21c6 <__addsf3+0x28>
    2266:	93 95       	inc	r25
    2268:	88 0f       	add	r24, r24
    226a:	08 f0       	brcs	.+2      	; 0x226e <__addsf3x+0xa2>
    226c:	99 27       	eor	r25, r25
    226e:	ee 0f       	add	r30, r30
    2270:	97 95       	ror	r25
    2272:	87 95       	ror	r24
    2274:	08 95       	ret

00002276 <__cmpsf2>:
    2276:	0e 94 ac 11 	call	0x2358	; 0x2358 <__fp_cmp>
    227a:	08 f4       	brcc	.+2      	; 0x227e <__cmpsf2+0x8>
    227c:	81 e0       	ldi	r24, 0x01	; 1
    227e:	08 95       	ret

00002280 <__fixunssfsi>:
    2280:	0e 94 00 12 	call	0x2400	; 0x2400 <__fp_splitA>
    2284:	88 f0       	brcs	.+34     	; 0x22a8 <__fixunssfsi+0x28>
    2286:	9f 57       	subi	r25, 0x7F	; 127
    2288:	98 f0       	brcs	.+38     	; 0x22b0 <__fixunssfsi+0x30>
    228a:	b9 2f       	mov	r27, r25
    228c:	99 27       	eor	r25, r25
    228e:	b7 51       	subi	r27, 0x17	; 23
    2290:	b0 f0       	brcs	.+44     	; 0x22be <__fixunssfsi+0x3e>
    2292:	e1 f0       	breq	.+56     	; 0x22cc <__fixunssfsi+0x4c>
    2294:	66 0f       	add	r22, r22
    2296:	77 1f       	adc	r23, r23
    2298:	88 1f       	adc	r24, r24
    229a:	99 1f       	adc	r25, r25
    229c:	1a f0       	brmi	.+6      	; 0x22a4 <__fixunssfsi+0x24>
    229e:	ba 95       	dec	r27
    22a0:	c9 f7       	brne	.-14     	; 0x2294 <__fixunssfsi+0x14>
    22a2:	14 c0       	rjmp	.+40     	; 0x22cc <__fixunssfsi+0x4c>
    22a4:	b1 30       	cpi	r27, 0x01	; 1
    22a6:	91 f0       	breq	.+36     	; 0x22cc <__fixunssfsi+0x4c>
    22a8:	0e 94 1a 12 	call	0x2434	; 0x2434 <__fp_zero>
    22ac:	b1 e0       	ldi	r27, 0x01	; 1
    22ae:	08 95       	ret
    22b0:	0c 94 1a 12 	jmp	0x2434	; 0x2434 <__fp_zero>
    22b4:	67 2f       	mov	r22, r23
    22b6:	78 2f       	mov	r23, r24
    22b8:	88 27       	eor	r24, r24
    22ba:	b8 5f       	subi	r27, 0xF8	; 248
    22bc:	39 f0       	breq	.+14     	; 0x22cc <__fixunssfsi+0x4c>
    22be:	b9 3f       	cpi	r27, 0xF9	; 249
    22c0:	cc f3       	brlt	.-14     	; 0x22b4 <__fixunssfsi+0x34>
    22c2:	86 95       	lsr	r24
    22c4:	77 95       	ror	r23
    22c6:	67 95       	ror	r22
    22c8:	b3 95       	inc	r27
    22ca:	d9 f7       	brne	.-10     	; 0x22c2 <__fixunssfsi+0x42>
    22cc:	3e f4       	brtc	.+14     	; 0x22dc <__fixunssfsi+0x5c>
    22ce:	90 95       	com	r25
    22d0:	80 95       	com	r24
    22d2:	70 95       	com	r23
    22d4:	61 95       	neg	r22
    22d6:	7f 4f       	sbci	r23, 0xFF	; 255
    22d8:	8f 4f       	sbci	r24, 0xFF	; 255
    22da:	9f 4f       	sbci	r25, 0xFF	; 255
    22dc:	08 95       	ret

000022de <__floatunsisf>:
    22de:	e8 94       	clt
    22e0:	09 c0       	rjmp	.+18     	; 0x22f4 <__floatsisf+0x12>

000022e2 <__floatsisf>:
    22e2:	97 fb       	bst	r25, 7
    22e4:	3e f4       	brtc	.+14     	; 0x22f4 <__floatsisf+0x12>
    22e6:	90 95       	com	r25
    22e8:	80 95       	com	r24
    22ea:	70 95       	com	r23
    22ec:	61 95       	neg	r22
    22ee:	7f 4f       	sbci	r23, 0xFF	; 255
    22f0:	8f 4f       	sbci	r24, 0xFF	; 255
    22f2:	9f 4f       	sbci	r25, 0xFF	; 255
    22f4:	99 23       	and	r25, r25
    22f6:	a9 f0       	breq	.+42     	; 0x2322 <__floatsisf+0x40>
    22f8:	f9 2f       	mov	r31, r25
    22fa:	96 e9       	ldi	r25, 0x96	; 150
    22fc:	bb 27       	eor	r27, r27
    22fe:	93 95       	inc	r25
    2300:	f6 95       	lsr	r31
    2302:	87 95       	ror	r24
    2304:	77 95       	ror	r23
    2306:	67 95       	ror	r22
    2308:	b7 95       	ror	r27
    230a:	f1 11       	cpse	r31, r1
    230c:	f8 cf       	rjmp	.-16     	; 0x22fe <__floatsisf+0x1c>
    230e:	fa f4       	brpl	.+62     	; 0x234e <__floatsisf+0x6c>
    2310:	bb 0f       	add	r27, r27
    2312:	11 f4       	brne	.+4      	; 0x2318 <__floatsisf+0x36>
    2314:	60 ff       	sbrs	r22, 0
    2316:	1b c0       	rjmp	.+54     	; 0x234e <__floatsisf+0x6c>
    2318:	6f 5f       	subi	r22, 0xFF	; 255
    231a:	7f 4f       	sbci	r23, 0xFF	; 255
    231c:	8f 4f       	sbci	r24, 0xFF	; 255
    231e:	9f 4f       	sbci	r25, 0xFF	; 255
    2320:	16 c0       	rjmp	.+44     	; 0x234e <__floatsisf+0x6c>
    2322:	88 23       	and	r24, r24
    2324:	11 f0       	breq	.+4      	; 0x232a <__floatsisf+0x48>
    2326:	96 e9       	ldi	r25, 0x96	; 150
    2328:	11 c0       	rjmp	.+34     	; 0x234c <__floatsisf+0x6a>
    232a:	77 23       	and	r23, r23
    232c:	21 f0       	breq	.+8      	; 0x2336 <__floatsisf+0x54>
    232e:	9e e8       	ldi	r25, 0x8E	; 142
    2330:	87 2f       	mov	r24, r23
    2332:	76 2f       	mov	r23, r22
    2334:	05 c0       	rjmp	.+10     	; 0x2340 <__floatsisf+0x5e>
    2336:	66 23       	and	r22, r22
    2338:	71 f0       	breq	.+28     	; 0x2356 <__floatsisf+0x74>
    233a:	96 e8       	ldi	r25, 0x86	; 134
    233c:	86 2f       	mov	r24, r22
    233e:	70 e0       	ldi	r23, 0x00	; 0
    2340:	60 e0       	ldi	r22, 0x00	; 0
    2342:	2a f0       	brmi	.+10     	; 0x234e <__floatsisf+0x6c>
    2344:	9a 95       	dec	r25
    2346:	66 0f       	add	r22, r22
    2348:	77 1f       	adc	r23, r23
    234a:	88 1f       	adc	r24, r24
    234c:	da f7       	brpl	.-10     	; 0x2344 <__floatsisf+0x62>
    234e:	88 0f       	add	r24, r24
    2350:	96 95       	lsr	r25
    2352:	87 95       	ror	r24
    2354:	97 f9       	bld	r25, 7
    2356:	08 95       	ret

00002358 <__fp_cmp>:
    2358:	99 0f       	add	r25, r25
    235a:	00 08       	sbc	r0, r0
    235c:	55 0f       	add	r21, r21
    235e:	aa 0b       	sbc	r26, r26
    2360:	e0 e8       	ldi	r30, 0x80	; 128
    2362:	fe ef       	ldi	r31, 0xFE	; 254
    2364:	16 16       	cp	r1, r22
    2366:	17 06       	cpc	r1, r23
    2368:	e8 07       	cpc	r30, r24
    236a:	f9 07       	cpc	r31, r25
    236c:	c0 f0       	brcs	.+48     	; 0x239e <__fp_cmp+0x46>
    236e:	12 16       	cp	r1, r18
    2370:	13 06       	cpc	r1, r19
    2372:	e4 07       	cpc	r30, r20
    2374:	f5 07       	cpc	r31, r21
    2376:	98 f0       	brcs	.+38     	; 0x239e <__fp_cmp+0x46>
    2378:	62 1b       	sub	r22, r18
    237a:	73 0b       	sbc	r23, r19
    237c:	84 0b       	sbc	r24, r20
    237e:	95 0b       	sbc	r25, r21
    2380:	39 f4       	brne	.+14     	; 0x2390 <__fp_cmp+0x38>
    2382:	0a 26       	eor	r0, r26
    2384:	61 f0       	breq	.+24     	; 0x239e <__fp_cmp+0x46>
    2386:	23 2b       	or	r18, r19
    2388:	24 2b       	or	r18, r20
    238a:	25 2b       	or	r18, r21
    238c:	21 f4       	brne	.+8      	; 0x2396 <__fp_cmp+0x3e>
    238e:	08 95       	ret
    2390:	0a 26       	eor	r0, r26
    2392:	09 f4       	brne	.+2      	; 0x2396 <__fp_cmp+0x3e>
    2394:	a1 40       	sbci	r26, 0x01	; 1
    2396:	a6 95       	lsr	r26
    2398:	8f ef       	ldi	r24, 0xFF	; 255
    239a:	81 1d       	adc	r24, r1
    239c:	81 1d       	adc	r24, r1
    239e:	08 95       	ret

000023a0 <__fp_inf>:
    23a0:	97 f9       	bld	r25, 7
    23a2:	9f 67       	ori	r25, 0x7F	; 127
    23a4:	80 e8       	ldi	r24, 0x80	; 128
    23a6:	70 e0       	ldi	r23, 0x00	; 0
    23a8:	60 e0       	ldi	r22, 0x00	; 0
    23aa:	08 95       	ret

000023ac <__fp_nan>:
    23ac:	9f ef       	ldi	r25, 0xFF	; 255
    23ae:	80 ec       	ldi	r24, 0xC0	; 192
    23b0:	08 95       	ret

000023b2 <__fp_pscA>:
    23b2:	00 24       	eor	r0, r0
    23b4:	0a 94       	dec	r0
    23b6:	16 16       	cp	r1, r22
    23b8:	17 06       	cpc	r1, r23
    23ba:	18 06       	cpc	r1, r24
    23bc:	09 06       	cpc	r0, r25
    23be:	08 95       	ret

000023c0 <__fp_pscB>:
    23c0:	00 24       	eor	r0, r0
    23c2:	0a 94       	dec	r0
    23c4:	12 16       	cp	r1, r18
    23c6:	13 06       	cpc	r1, r19
    23c8:	14 06       	cpc	r1, r20
    23ca:	05 06       	cpc	r0, r21
    23cc:	08 95       	ret

000023ce <__fp_round>:
    23ce:	09 2e       	mov	r0, r25
    23d0:	03 94       	inc	r0
    23d2:	00 0c       	add	r0, r0
    23d4:	11 f4       	brne	.+4      	; 0x23da <__fp_round+0xc>
    23d6:	88 23       	and	r24, r24
    23d8:	52 f0       	brmi	.+20     	; 0x23ee <__fp_round+0x20>
    23da:	bb 0f       	add	r27, r27
    23dc:	40 f4       	brcc	.+16     	; 0x23ee <__fp_round+0x20>
    23de:	bf 2b       	or	r27, r31
    23e0:	11 f4       	brne	.+4      	; 0x23e6 <__fp_round+0x18>
    23e2:	60 ff       	sbrs	r22, 0
    23e4:	04 c0       	rjmp	.+8      	; 0x23ee <__fp_round+0x20>
    23e6:	6f 5f       	subi	r22, 0xFF	; 255
    23e8:	7f 4f       	sbci	r23, 0xFF	; 255
    23ea:	8f 4f       	sbci	r24, 0xFF	; 255
    23ec:	9f 4f       	sbci	r25, 0xFF	; 255
    23ee:	08 95       	ret

000023f0 <__fp_split3>:
    23f0:	57 fd       	sbrc	r21, 7
    23f2:	90 58       	subi	r25, 0x80	; 128
    23f4:	44 0f       	add	r20, r20
    23f6:	55 1f       	adc	r21, r21
    23f8:	59 f0       	breq	.+22     	; 0x2410 <__fp_splitA+0x10>
    23fa:	5f 3f       	cpi	r21, 0xFF	; 255
    23fc:	71 f0       	breq	.+28     	; 0x241a <__fp_splitA+0x1a>
    23fe:	47 95       	ror	r20

00002400 <__fp_splitA>:
    2400:	88 0f       	add	r24, r24
    2402:	97 fb       	bst	r25, 7
    2404:	99 1f       	adc	r25, r25
    2406:	61 f0       	breq	.+24     	; 0x2420 <__fp_splitA+0x20>
    2408:	9f 3f       	cpi	r25, 0xFF	; 255
    240a:	79 f0       	breq	.+30     	; 0x242a <__fp_splitA+0x2a>
    240c:	87 95       	ror	r24
    240e:	08 95       	ret
    2410:	12 16       	cp	r1, r18
    2412:	13 06       	cpc	r1, r19
    2414:	14 06       	cpc	r1, r20
    2416:	55 1f       	adc	r21, r21
    2418:	f2 cf       	rjmp	.-28     	; 0x23fe <__fp_split3+0xe>
    241a:	46 95       	lsr	r20
    241c:	f1 df       	rcall	.-30     	; 0x2400 <__fp_splitA>
    241e:	08 c0       	rjmp	.+16     	; 0x2430 <__fp_splitA+0x30>
    2420:	16 16       	cp	r1, r22
    2422:	17 06       	cpc	r1, r23
    2424:	18 06       	cpc	r1, r24
    2426:	99 1f       	adc	r25, r25
    2428:	f1 cf       	rjmp	.-30     	; 0x240c <__fp_splitA+0xc>
    242a:	86 95       	lsr	r24
    242c:	71 05       	cpc	r23, r1
    242e:	61 05       	cpc	r22, r1
    2430:	08 94       	sec
    2432:	08 95       	ret

00002434 <__fp_zero>:
    2434:	e8 94       	clt

00002436 <__fp_szero>:
    2436:	bb 27       	eor	r27, r27
    2438:	66 27       	eor	r22, r22
    243a:	77 27       	eor	r23, r23
    243c:	cb 01       	movw	r24, r22
    243e:	97 f9       	bld	r25, 7
    2440:	08 95       	ret

00002442 <__gesf2>:
    2442:	0e 94 ac 11 	call	0x2358	; 0x2358 <__fp_cmp>
    2446:	08 f4       	brcc	.+2      	; 0x244a <__gesf2+0x8>
    2448:	8f ef       	ldi	r24, 0xFF	; 255
    244a:	08 95       	ret

0000244c <__mulsf3>:
    244c:	0e 94 39 12 	call	0x2472	; 0x2472 <__mulsf3x>
    2450:	0c 94 e7 11 	jmp	0x23ce	; 0x23ce <__fp_round>
    2454:	0e 94 d9 11 	call	0x23b2	; 0x23b2 <__fp_pscA>
    2458:	38 f0       	brcs	.+14     	; 0x2468 <__mulsf3+0x1c>
    245a:	0e 94 e0 11 	call	0x23c0	; 0x23c0 <__fp_pscB>
    245e:	20 f0       	brcs	.+8      	; 0x2468 <__mulsf3+0x1c>
    2460:	95 23       	and	r25, r21
    2462:	11 f0       	breq	.+4      	; 0x2468 <__mulsf3+0x1c>
    2464:	0c 94 d0 11 	jmp	0x23a0	; 0x23a0 <__fp_inf>
    2468:	0c 94 d6 11 	jmp	0x23ac	; 0x23ac <__fp_nan>
    246c:	11 24       	eor	r1, r1
    246e:	0c 94 1b 12 	jmp	0x2436	; 0x2436 <__fp_szero>

00002472 <__mulsf3x>:
    2472:	0e 94 f8 11 	call	0x23f0	; 0x23f0 <__fp_split3>
    2476:	70 f3       	brcs	.-36     	; 0x2454 <__mulsf3+0x8>

00002478 <__mulsf3_pse>:
    2478:	95 9f       	mul	r25, r21
    247a:	c1 f3       	breq	.-16     	; 0x246c <__mulsf3+0x20>
    247c:	95 0f       	add	r25, r21
    247e:	50 e0       	ldi	r21, 0x00	; 0
    2480:	55 1f       	adc	r21, r21
    2482:	62 9f       	mul	r22, r18
    2484:	f0 01       	movw	r30, r0
    2486:	72 9f       	mul	r23, r18
    2488:	bb 27       	eor	r27, r27
    248a:	f0 0d       	add	r31, r0
    248c:	b1 1d       	adc	r27, r1
    248e:	63 9f       	mul	r22, r19
    2490:	aa 27       	eor	r26, r26
    2492:	f0 0d       	add	r31, r0
    2494:	b1 1d       	adc	r27, r1
    2496:	aa 1f       	adc	r26, r26
    2498:	64 9f       	mul	r22, r20
    249a:	66 27       	eor	r22, r22
    249c:	b0 0d       	add	r27, r0
    249e:	a1 1d       	adc	r26, r1
    24a0:	66 1f       	adc	r22, r22
    24a2:	82 9f       	mul	r24, r18
    24a4:	22 27       	eor	r18, r18
    24a6:	b0 0d       	add	r27, r0
    24a8:	a1 1d       	adc	r26, r1
    24aa:	62 1f       	adc	r22, r18
    24ac:	73 9f       	mul	r23, r19
    24ae:	b0 0d       	add	r27, r0
    24b0:	a1 1d       	adc	r26, r1
    24b2:	62 1f       	adc	r22, r18
    24b4:	83 9f       	mul	r24, r19
    24b6:	a0 0d       	add	r26, r0
    24b8:	61 1d       	adc	r22, r1
    24ba:	22 1f       	adc	r18, r18
    24bc:	74 9f       	mul	r23, r20
    24be:	33 27       	eor	r19, r19
    24c0:	a0 0d       	add	r26, r0
    24c2:	61 1d       	adc	r22, r1
    24c4:	23 1f       	adc	r18, r19
    24c6:	84 9f       	mul	r24, r20
    24c8:	60 0d       	add	r22, r0
    24ca:	21 1d       	adc	r18, r1
    24cc:	82 2f       	mov	r24, r18
    24ce:	76 2f       	mov	r23, r22
    24d0:	6a 2f       	mov	r22, r26
    24d2:	11 24       	eor	r1, r1
    24d4:	9f 57       	subi	r25, 0x7F	; 127
    24d6:	50 40       	sbci	r21, 0x00	; 0
    24d8:	9a f0       	brmi	.+38     	; 0x2500 <__mulsf3_pse+0x88>
    24da:	f1 f0       	breq	.+60     	; 0x2518 <__mulsf3_pse+0xa0>
    24dc:	88 23       	and	r24, r24
    24de:	4a f0       	brmi	.+18     	; 0x24f2 <__mulsf3_pse+0x7a>
    24e0:	ee 0f       	add	r30, r30
    24e2:	ff 1f       	adc	r31, r31
    24e4:	bb 1f       	adc	r27, r27
    24e6:	66 1f       	adc	r22, r22
    24e8:	77 1f       	adc	r23, r23
    24ea:	88 1f       	adc	r24, r24
    24ec:	91 50       	subi	r25, 0x01	; 1
    24ee:	50 40       	sbci	r21, 0x00	; 0
    24f0:	a9 f7       	brne	.-22     	; 0x24dc <__mulsf3_pse+0x64>
    24f2:	9e 3f       	cpi	r25, 0xFE	; 254
    24f4:	51 05       	cpc	r21, r1
    24f6:	80 f0       	brcs	.+32     	; 0x2518 <__mulsf3_pse+0xa0>
    24f8:	0c 94 d0 11 	jmp	0x23a0	; 0x23a0 <__fp_inf>
    24fc:	0c 94 1b 12 	jmp	0x2436	; 0x2436 <__fp_szero>
    2500:	5f 3f       	cpi	r21, 0xFF	; 255
    2502:	e4 f3       	brlt	.-8      	; 0x24fc <__mulsf3_pse+0x84>
    2504:	98 3e       	cpi	r25, 0xE8	; 232
    2506:	d4 f3       	brlt	.-12     	; 0x24fc <__mulsf3_pse+0x84>
    2508:	86 95       	lsr	r24
    250a:	77 95       	ror	r23
    250c:	67 95       	ror	r22
    250e:	b7 95       	ror	r27
    2510:	f7 95       	ror	r31
    2512:	e7 95       	ror	r30
    2514:	9f 5f       	subi	r25, 0xFF	; 255
    2516:	c1 f7       	brne	.-16     	; 0x2508 <__mulsf3_pse+0x90>
    2518:	fe 2b       	or	r31, r30
    251a:	88 0f       	add	r24, r24
    251c:	91 1d       	adc	r25, r1
    251e:	96 95       	lsr	r25
    2520:	87 95       	ror	r24
    2522:	97 f9       	bld	r25, 7
    2524:	08 95       	ret

00002526 <fputc>:
    2526:	0f 93       	push	r16
    2528:	1f 93       	push	r17
    252a:	cf 93       	push	r28
    252c:	df 93       	push	r29
    252e:	fb 01       	movw	r30, r22
    2530:	23 81       	ldd	r18, Z+3	; 0x03
    2532:	21 fd       	sbrc	r18, 1
    2534:	03 c0       	rjmp	.+6      	; 0x253c <fputc+0x16>
    2536:	8f ef       	ldi	r24, 0xFF	; 255
    2538:	9f ef       	ldi	r25, 0xFF	; 255
    253a:	2c c0       	rjmp	.+88     	; 0x2594 <fputc+0x6e>
    253c:	22 ff       	sbrs	r18, 2
    253e:	16 c0       	rjmp	.+44     	; 0x256c <fputc+0x46>
    2540:	46 81       	ldd	r20, Z+6	; 0x06
    2542:	57 81       	ldd	r21, Z+7	; 0x07
    2544:	24 81       	ldd	r18, Z+4	; 0x04
    2546:	35 81       	ldd	r19, Z+5	; 0x05
    2548:	42 17       	cp	r20, r18
    254a:	53 07       	cpc	r21, r19
    254c:	44 f4       	brge	.+16     	; 0x255e <fputc+0x38>
    254e:	a0 81       	ld	r26, Z
    2550:	b1 81       	ldd	r27, Z+1	; 0x01
    2552:	9d 01       	movw	r18, r26
    2554:	2f 5f       	subi	r18, 0xFF	; 255
    2556:	3f 4f       	sbci	r19, 0xFF	; 255
    2558:	31 83       	std	Z+1, r19	; 0x01
    255a:	20 83       	st	Z, r18
    255c:	8c 93       	st	X, r24
    255e:	26 81       	ldd	r18, Z+6	; 0x06
    2560:	37 81       	ldd	r19, Z+7	; 0x07
    2562:	2f 5f       	subi	r18, 0xFF	; 255
    2564:	3f 4f       	sbci	r19, 0xFF	; 255
    2566:	37 83       	std	Z+7, r19	; 0x07
    2568:	26 83       	std	Z+6, r18	; 0x06
    256a:	14 c0       	rjmp	.+40     	; 0x2594 <fputc+0x6e>
    256c:	8b 01       	movw	r16, r22
    256e:	ec 01       	movw	r28, r24
    2570:	fb 01       	movw	r30, r22
    2572:	00 84       	ldd	r0, Z+8	; 0x08
    2574:	f1 85       	ldd	r31, Z+9	; 0x09
    2576:	e0 2d       	mov	r30, r0
    2578:	09 95       	icall
    257a:	89 2b       	or	r24, r25
    257c:	e1 f6       	brne	.-72     	; 0x2536 <fputc+0x10>
    257e:	d8 01       	movw	r26, r16
    2580:	16 96       	adiw	r26, 0x06	; 6
    2582:	8d 91       	ld	r24, X+
    2584:	9c 91       	ld	r25, X
    2586:	17 97       	sbiw	r26, 0x07	; 7
    2588:	01 96       	adiw	r24, 0x01	; 1
    258a:	17 96       	adiw	r26, 0x07	; 7
    258c:	9c 93       	st	X, r25
    258e:	8e 93       	st	-X, r24
    2590:	16 97       	sbiw	r26, 0x06	; 6
    2592:	ce 01       	movw	r24, r28
    2594:	df 91       	pop	r29
    2596:	cf 91       	pop	r28
    2598:	1f 91       	pop	r17
    259a:	0f 91       	pop	r16
    259c:	08 95       	ret

0000259e <fputs>:
    259e:	ef 92       	push	r14
    25a0:	ff 92       	push	r15
    25a2:	0f 93       	push	r16
    25a4:	1f 93       	push	r17
    25a6:	cf 93       	push	r28
    25a8:	df 93       	push	r29
    25aa:	db 01       	movw	r26, r22
    25ac:	13 96       	adiw	r26, 0x03	; 3
    25ae:	2c 91       	ld	r18, X
    25b0:	21 ff       	sbrs	r18, 1
    25b2:	18 c0       	rjmp	.+48     	; 0x25e4 <fputs+0x46>
    25b4:	8b 01       	movw	r16, r22
    25b6:	7c 01       	movw	r14, r24
    25b8:	d0 e0       	ldi	r29, 0x00	; 0
    25ba:	c0 e0       	ldi	r28, 0x00	; 0
    25bc:	f7 01       	movw	r30, r14
    25be:	81 91       	ld	r24, Z+
    25c0:	7f 01       	movw	r14, r30
    25c2:	88 23       	and	r24, r24
    25c4:	61 f0       	breq	.+24     	; 0x25de <fputs+0x40>
    25c6:	d8 01       	movw	r26, r16
    25c8:	18 96       	adiw	r26, 0x08	; 8
    25ca:	ed 91       	ld	r30, X+
    25cc:	fc 91       	ld	r31, X
    25ce:	19 97       	sbiw	r26, 0x09	; 9
    25d0:	b8 01       	movw	r22, r16
    25d2:	09 95       	icall
    25d4:	89 2b       	or	r24, r25
    25d6:	91 f3       	breq	.-28     	; 0x25bc <fputs+0x1e>
    25d8:	df ef       	ldi	r29, 0xFF	; 255
    25da:	cf ef       	ldi	r28, 0xFF	; 255
    25dc:	ef cf       	rjmp	.-34     	; 0x25bc <fputs+0x1e>
    25de:	8d 2f       	mov	r24, r29
    25e0:	9c 2f       	mov	r25, r28
    25e2:	02 c0       	rjmp	.+4      	; 0x25e8 <fputs+0x4a>
    25e4:	8f ef       	ldi	r24, 0xFF	; 255
    25e6:	9f ef       	ldi	r25, 0xFF	; 255
    25e8:	cd b7       	in	r28, 0x3d	; 61
    25ea:	de b7       	in	r29, 0x3e	; 62
    25ec:	e6 e0       	ldi	r30, 0x06	; 6
    25ee:	0c 94 b2 15 	jmp	0x2b64	; 0x2b64 <__epilogue_restores__+0x18>

000025f2 <sprintf>:
    25f2:	ae e0       	ldi	r26, 0x0E	; 14
    25f4:	b0 e0       	ldi	r27, 0x00	; 0
    25f6:	ef ef       	ldi	r30, 0xFF	; 255
    25f8:	f2 e1       	ldi	r31, 0x12	; 18
    25fa:	0c 94 98 15 	jmp	0x2b30	; 0x2b30 <__prologue_saves__+0x1c>
    25fe:	0d 89       	ldd	r16, Y+21	; 0x15
    2600:	1e 89       	ldd	r17, Y+22	; 0x16
    2602:	86 e0       	ldi	r24, 0x06	; 6
    2604:	8c 83       	std	Y+4, r24	; 0x04
    2606:	1a 83       	std	Y+2, r17	; 0x02
    2608:	09 83       	std	Y+1, r16	; 0x01
    260a:	8f ef       	ldi	r24, 0xFF	; 255
    260c:	9f e7       	ldi	r25, 0x7F	; 127
    260e:	9e 83       	std	Y+6, r25	; 0x06
    2610:	8d 83       	std	Y+5, r24	; 0x05
    2612:	ae 01       	movw	r20, r28
    2614:	47 5e       	subi	r20, 0xE7	; 231
    2616:	5f 4f       	sbci	r21, 0xFF	; 255
    2618:	6f 89       	ldd	r22, Y+23	; 0x17
    261a:	78 8d       	ldd	r23, Y+24	; 0x18
    261c:	ce 01       	movw	r24, r28
    261e:	01 96       	adiw	r24, 0x01	; 1
    2620:	0e 94 1b 13 	call	0x2636	; 0x2636 <vfprintf>
    2624:	ef 81       	ldd	r30, Y+7	; 0x07
    2626:	f8 85       	ldd	r31, Y+8	; 0x08
    2628:	e0 0f       	add	r30, r16
    262a:	f1 1f       	adc	r31, r17
    262c:	10 82       	st	Z, r1
    262e:	2e 96       	adiw	r28, 0x0e	; 14
    2630:	e4 e0       	ldi	r30, 0x04	; 4
    2632:	0c 94 b4 15 	jmp	0x2b68	; 0x2b68 <__epilogue_restores__+0x1c>

00002636 <vfprintf>:
    2636:	ab e0       	ldi	r26, 0x0B	; 11
    2638:	b0 e0       	ldi	r27, 0x00	; 0
    263a:	e1 e2       	ldi	r30, 0x21	; 33
    263c:	f3 e1       	ldi	r31, 0x13	; 19
    263e:	0c 94 8a 15 	jmp	0x2b14	; 0x2b14 <__prologue_saves__>
    2642:	6c 01       	movw	r12, r24
    2644:	7b 01       	movw	r14, r22
    2646:	8a 01       	movw	r16, r20
    2648:	fc 01       	movw	r30, r24
    264a:	17 82       	std	Z+7, r1	; 0x07
    264c:	16 82       	std	Z+6, r1	; 0x06
    264e:	83 81       	ldd	r24, Z+3	; 0x03
    2650:	81 ff       	sbrs	r24, 1
    2652:	cc c1       	rjmp	.+920    	; 0x29ec <vfprintf+0x3b6>
    2654:	ce 01       	movw	r24, r28
    2656:	01 96       	adiw	r24, 0x01	; 1
    2658:	3c 01       	movw	r6, r24
    265a:	f6 01       	movw	r30, r12
    265c:	93 81       	ldd	r25, Z+3	; 0x03
    265e:	f7 01       	movw	r30, r14
    2660:	93 fd       	sbrc	r25, 3
    2662:	85 91       	lpm	r24, Z+
    2664:	93 ff       	sbrs	r25, 3
    2666:	81 91       	ld	r24, Z+
    2668:	7f 01       	movw	r14, r30
    266a:	88 23       	and	r24, r24
    266c:	09 f4       	brne	.+2      	; 0x2670 <vfprintf+0x3a>
    266e:	ba c1       	rjmp	.+884    	; 0x29e4 <vfprintf+0x3ae>
    2670:	85 32       	cpi	r24, 0x25	; 37
    2672:	39 f4       	brne	.+14     	; 0x2682 <vfprintf+0x4c>
    2674:	93 fd       	sbrc	r25, 3
    2676:	85 91       	lpm	r24, Z+
    2678:	93 ff       	sbrs	r25, 3
    267a:	81 91       	ld	r24, Z+
    267c:	7f 01       	movw	r14, r30
    267e:	85 32       	cpi	r24, 0x25	; 37
    2680:	29 f4       	brne	.+10     	; 0x268c <vfprintf+0x56>
    2682:	b6 01       	movw	r22, r12
    2684:	90 e0       	ldi	r25, 0x00	; 0
    2686:	0e 94 93 12 	call	0x2526	; 0x2526 <fputc>
    268a:	e7 cf       	rjmp	.-50     	; 0x265a <vfprintf+0x24>
    268c:	91 2c       	mov	r9, r1
    268e:	21 2c       	mov	r2, r1
    2690:	31 2c       	mov	r3, r1
    2692:	ff e1       	ldi	r31, 0x1F	; 31
    2694:	f3 15       	cp	r31, r3
    2696:	d8 f0       	brcs	.+54     	; 0x26ce <vfprintf+0x98>
    2698:	8b 32       	cpi	r24, 0x2B	; 43
    269a:	79 f0       	breq	.+30     	; 0x26ba <vfprintf+0x84>
    269c:	38 f4       	brcc	.+14     	; 0x26ac <vfprintf+0x76>
    269e:	80 32       	cpi	r24, 0x20	; 32
    26a0:	79 f0       	breq	.+30     	; 0x26c0 <vfprintf+0x8a>
    26a2:	83 32       	cpi	r24, 0x23	; 35
    26a4:	a1 f4       	brne	.+40     	; 0x26ce <vfprintf+0x98>
    26a6:	23 2d       	mov	r18, r3
    26a8:	20 61       	ori	r18, 0x10	; 16
    26aa:	1d c0       	rjmp	.+58     	; 0x26e6 <vfprintf+0xb0>
    26ac:	8d 32       	cpi	r24, 0x2D	; 45
    26ae:	61 f0       	breq	.+24     	; 0x26c8 <vfprintf+0x92>
    26b0:	80 33       	cpi	r24, 0x30	; 48
    26b2:	69 f4       	brne	.+26     	; 0x26ce <vfprintf+0x98>
    26b4:	23 2d       	mov	r18, r3
    26b6:	21 60       	ori	r18, 0x01	; 1
    26b8:	16 c0       	rjmp	.+44     	; 0x26e6 <vfprintf+0xb0>
    26ba:	83 2d       	mov	r24, r3
    26bc:	82 60       	ori	r24, 0x02	; 2
    26be:	38 2e       	mov	r3, r24
    26c0:	e3 2d       	mov	r30, r3
    26c2:	e4 60       	ori	r30, 0x04	; 4
    26c4:	3e 2e       	mov	r3, r30
    26c6:	2a c0       	rjmp	.+84     	; 0x271c <vfprintf+0xe6>
    26c8:	f3 2d       	mov	r31, r3
    26ca:	f8 60       	ori	r31, 0x08	; 8
    26cc:	1d c0       	rjmp	.+58     	; 0x2708 <vfprintf+0xd2>
    26ce:	37 fc       	sbrc	r3, 7
    26d0:	2d c0       	rjmp	.+90     	; 0x272c <vfprintf+0xf6>
    26d2:	20 ed       	ldi	r18, 0xD0	; 208
    26d4:	28 0f       	add	r18, r24
    26d6:	2a 30       	cpi	r18, 0x0A	; 10
    26d8:	40 f0       	brcs	.+16     	; 0x26ea <vfprintf+0xb4>
    26da:	8e 32       	cpi	r24, 0x2E	; 46
    26dc:	b9 f4       	brne	.+46     	; 0x270c <vfprintf+0xd6>
    26de:	36 fc       	sbrc	r3, 6
    26e0:	81 c1       	rjmp	.+770    	; 0x29e4 <vfprintf+0x3ae>
    26e2:	23 2d       	mov	r18, r3
    26e4:	20 64       	ori	r18, 0x40	; 64
    26e6:	32 2e       	mov	r3, r18
    26e8:	19 c0       	rjmp	.+50     	; 0x271c <vfprintf+0xe6>
    26ea:	36 fe       	sbrs	r3, 6
    26ec:	06 c0       	rjmp	.+12     	; 0x26fa <vfprintf+0xc4>
    26ee:	8a e0       	ldi	r24, 0x0A	; 10
    26f0:	98 9e       	mul	r9, r24
    26f2:	20 0d       	add	r18, r0
    26f4:	11 24       	eor	r1, r1
    26f6:	92 2e       	mov	r9, r18
    26f8:	11 c0       	rjmp	.+34     	; 0x271c <vfprintf+0xe6>
    26fa:	ea e0       	ldi	r30, 0x0A	; 10
    26fc:	2e 9e       	mul	r2, r30
    26fe:	20 0d       	add	r18, r0
    2700:	11 24       	eor	r1, r1
    2702:	22 2e       	mov	r2, r18
    2704:	f3 2d       	mov	r31, r3
    2706:	f0 62       	ori	r31, 0x20	; 32
    2708:	3f 2e       	mov	r3, r31
    270a:	08 c0       	rjmp	.+16     	; 0x271c <vfprintf+0xe6>
    270c:	8c 36       	cpi	r24, 0x6C	; 108
    270e:	21 f4       	brne	.+8      	; 0x2718 <vfprintf+0xe2>
    2710:	83 2d       	mov	r24, r3
    2712:	80 68       	ori	r24, 0x80	; 128
    2714:	38 2e       	mov	r3, r24
    2716:	02 c0       	rjmp	.+4      	; 0x271c <vfprintf+0xe6>
    2718:	88 36       	cpi	r24, 0x68	; 104
    271a:	41 f4       	brne	.+16     	; 0x272c <vfprintf+0xf6>
    271c:	f7 01       	movw	r30, r14
    271e:	93 fd       	sbrc	r25, 3
    2720:	85 91       	lpm	r24, Z+
    2722:	93 ff       	sbrs	r25, 3
    2724:	81 91       	ld	r24, Z+
    2726:	7f 01       	movw	r14, r30
    2728:	81 11       	cpse	r24, r1
    272a:	b3 cf       	rjmp	.-154    	; 0x2692 <vfprintf+0x5c>
    272c:	98 2f       	mov	r25, r24
    272e:	9f 7d       	andi	r25, 0xDF	; 223
    2730:	95 54       	subi	r25, 0x45	; 69
    2732:	93 30       	cpi	r25, 0x03	; 3
    2734:	28 f4       	brcc	.+10     	; 0x2740 <vfprintf+0x10a>
    2736:	0c 5f       	subi	r16, 0xFC	; 252
    2738:	1f 4f       	sbci	r17, 0xFF	; 255
    273a:	9f e3       	ldi	r25, 0x3F	; 63
    273c:	99 83       	std	Y+1, r25	; 0x01
    273e:	0d c0       	rjmp	.+26     	; 0x275a <vfprintf+0x124>
    2740:	83 36       	cpi	r24, 0x63	; 99
    2742:	31 f0       	breq	.+12     	; 0x2750 <vfprintf+0x11a>
    2744:	83 37       	cpi	r24, 0x73	; 115
    2746:	71 f0       	breq	.+28     	; 0x2764 <vfprintf+0x12e>
    2748:	83 35       	cpi	r24, 0x53	; 83
    274a:	09 f0       	breq	.+2      	; 0x274e <vfprintf+0x118>
    274c:	59 c0       	rjmp	.+178    	; 0x2800 <vfprintf+0x1ca>
    274e:	21 c0       	rjmp	.+66     	; 0x2792 <vfprintf+0x15c>
    2750:	f8 01       	movw	r30, r16
    2752:	80 81       	ld	r24, Z
    2754:	89 83       	std	Y+1, r24	; 0x01
    2756:	0e 5f       	subi	r16, 0xFE	; 254
    2758:	1f 4f       	sbci	r17, 0xFF	; 255
    275a:	88 24       	eor	r8, r8
    275c:	83 94       	inc	r8
    275e:	91 2c       	mov	r9, r1
    2760:	53 01       	movw	r10, r6
    2762:	13 c0       	rjmp	.+38     	; 0x278a <vfprintf+0x154>
    2764:	28 01       	movw	r4, r16
    2766:	f2 e0       	ldi	r31, 0x02	; 2
    2768:	4f 0e       	add	r4, r31
    276a:	51 1c       	adc	r5, r1
    276c:	f8 01       	movw	r30, r16
    276e:	a0 80       	ld	r10, Z
    2770:	b1 80       	ldd	r11, Z+1	; 0x01
    2772:	36 fe       	sbrs	r3, 6
    2774:	03 c0       	rjmp	.+6      	; 0x277c <vfprintf+0x146>
    2776:	69 2d       	mov	r22, r9
    2778:	70 e0       	ldi	r23, 0x00	; 0
    277a:	02 c0       	rjmp	.+4      	; 0x2780 <vfprintf+0x14a>
    277c:	6f ef       	ldi	r22, 0xFF	; 255
    277e:	7f ef       	ldi	r23, 0xFF	; 255
    2780:	c5 01       	movw	r24, r10
    2782:	0e 94 07 15 	call	0x2a0e	; 0x2a0e <strnlen>
    2786:	4c 01       	movw	r8, r24
    2788:	82 01       	movw	r16, r4
    278a:	f3 2d       	mov	r31, r3
    278c:	ff 77       	andi	r31, 0x7F	; 127
    278e:	3f 2e       	mov	r3, r31
    2790:	16 c0       	rjmp	.+44     	; 0x27be <vfprintf+0x188>
    2792:	28 01       	movw	r4, r16
    2794:	22 e0       	ldi	r18, 0x02	; 2
    2796:	42 0e       	add	r4, r18
    2798:	51 1c       	adc	r5, r1
    279a:	f8 01       	movw	r30, r16
    279c:	a0 80       	ld	r10, Z
    279e:	b1 80       	ldd	r11, Z+1	; 0x01
    27a0:	36 fe       	sbrs	r3, 6
    27a2:	03 c0       	rjmp	.+6      	; 0x27aa <vfprintf+0x174>
    27a4:	69 2d       	mov	r22, r9
    27a6:	70 e0       	ldi	r23, 0x00	; 0
    27a8:	02 c0       	rjmp	.+4      	; 0x27ae <vfprintf+0x178>
    27aa:	6f ef       	ldi	r22, 0xFF	; 255
    27ac:	7f ef       	ldi	r23, 0xFF	; 255
    27ae:	c5 01       	movw	r24, r10
    27b0:	0e 94 fc 14 	call	0x29f8	; 0x29f8 <strnlen_P>
    27b4:	4c 01       	movw	r8, r24
    27b6:	f3 2d       	mov	r31, r3
    27b8:	f0 68       	ori	r31, 0x80	; 128
    27ba:	3f 2e       	mov	r3, r31
    27bc:	82 01       	movw	r16, r4
    27be:	33 fc       	sbrc	r3, 3
    27c0:	1b c0       	rjmp	.+54     	; 0x27f8 <vfprintf+0x1c2>
    27c2:	82 2d       	mov	r24, r2
    27c4:	90 e0       	ldi	r25, 0x00	; 0
    27c6:	88 16       	cp	r8, r24
    27c8:	99 06       	cpc	r9, r25
    27ca:	b0 f4       	brcc	.+44     	; 0x27f8 <vfprintf+0x1c2>
    27cc:	b6 01       	movw	r22, r12
    27ce:	80 e2       	ldi	r24, 0x20	; 32
    27d0:	90 e0       	ldi	r25, 0x00	; 0
    27d2:	0e 94 93 12 	call	0x2526	; 0x2526 <fputc>
    27d6:	2a 94       	dec	r2
    27d8:	f4 cf       	rjmp	.-24     	; 0x27c2 <vfprintf+0x18c>
    27da:	f5 01       	movw	r30, r10
    27dc:	37 fc       	sbrc	r3, 7
    27de:	85 91       	lpm	r24, Z+
    27e0:	37 fe       	sbrs	r3, 7
    27e2:	81 91       	ld	r24, Z+
    27e4:	5f 01       	movw	r10, r30
    27e6:	b6 01       	movw	r22, r12
    27e8:	90 e0       	ldi	r25, 0x00	; 0
    27ea:	0e 94 93 12 	call	0x2526	; 0x2526 <fputc>
    27ee:	21 10       	cpse	r2, r1
    27f0:	2a 94       	dec	r2
    27f2:	21 e0       	ldi	r18, 0x01	; 1
    27f4:	82 1a       	sub	r8, r18
    27f6:	91 08       	sbc	r9, r1
    27f8:	81 14       	cp	r8, r1
    27fa:	91 04       	cpc	r9, r1
    27fc:	71 f7       	brne	.-36     	; 0x27da <vfprintf+0x1a4>
    27fe:	e8 c0       	rjmp	.+464    	; 0x29d0 <vfprintf+0x39a>
    2800:	84 36       	cpi	r24, 0x64	; 100
    2802:	11 f0       	breq	.+4      	; 0x2808 <vfprintf+0x1d2>
    2804:	89 36       	cpi	r24, 0x69	; 105
    2806:	41 f5       	brne	.+80     	; 0x2858 <vfprintf+0x222>
    2808:	f8 01       	movw	r30, r16
    280a:	37 fe       	sbrs	r3, 7
    280c:	07 c0       	rjmp	.+14     	; 0x281c <vfprintf+0x1e6>
    280e:	60 81       	ld	r22, Z
    2810:	71 81       	ldd	r23, Z+1	; 0x01
    2812:	82 81       	ldd	r24, Z+2	; 0x02
    2814:	93 81       	ldd	r25, Z+3	; 0x03
    2816:	0c 5f       	subi	r16, 0xFC	; 252
    2818:	1f 4f       	sbci	r17, 0xFF	; 255
    281a:	08 c0       	rjmp	.+16     	; 0x282c <vfprintf+0x1f6>
    281c:	60 81       	ld	r22, Z
    281e:	71 81       	ldd	r23, Z+1	; 0x01
    2820:	07 2e       	mov	r0, r23
    2822:	00 0c       	add	r0, r0
    2824:	88 0b       	sbc	r24, r24
    2826:	99 0b       	sbc	r25, r25
    2828:	0e 5f       	subi	r16, 0xFE	; 254
    282a:	1f 4f       	sbci	r17, 0xFF	; 255
    282c:	f3 2d       	mov	r31, r3
    282e:	ff 76       	andi	r31, 0x6F	; 111
    2830:	3f 2e       	mov	r3, r31
    2832:	97 ff       	sbrs	r25, 7
    2834:	09 c0       	rjmp	.+18     	; 0x2848 <vfprintf+0x212>
    2836:	90 95       	com	r25
    2838:	80 95       	com	r24
    283a:	70 95       	com	r23
    283c:	61 95       	neg	r22
    283e:	7f 4f       	sbci	r23, 0xFF	; 255
    2840:	8f 4f       	sbci	r24, 0xFF	; 255
    2842:	9f 4f       	sbci	r25, 0xFF	; 255
    2844:	f0 68       	ori	r31, 0x80	; 128
    2846:	3f 2e       	mov	r3, r31
    2848:	2a e0       	ldi	r18, 0x0A	; 10
    284a:	30 e0       	ldi	r19, 0x00	; 0
    284c:	a3 01       	movw	r20, r6
    284e:	0e 94 12 15 	call	0x2a24	; 0x2a24 <__ultoa_invert>
    2852:	88 2e       	mov	r8, r24
    2854:	86 18       	sub	r8, r6
    2856:	45 c0       	rjmp	.+138    	; 0x28e2 <vfprintf+0x2ac>
    2858:	85 37       	cpi	r24, 0x75	; 117
    285a:	31 f4       	brne	.+12     	; 0x2868 <vfprintf+0x232>
    285c:	23 2d       	mov	r18, r3
    285e:	2f 7e       	andi	r18, 0xEF	; 239
    2860:	b2 2e       	mov	r11, r18
    2862:	2a e0       	ldi	r18, 0x0A	; 10
    2864:	30 e0       	ldi	r19, 0x00	; 0
    2866:	25 c0       	rjmp	.+74     	; 0x28b2 <vfprintf+0x27c>
    2868:	93 2d       	mov	r25, r3
    286a:	99 7f       	andi	r25, 0xF9	; 249
    286c:	b9 2e       	mov	r11, r25
    286e:	8f 36       	cpi	r24, 0x6F	; 111
    2870:	c1 f0       	breq	.+48     	; 0x28a2 <vfprintf+0x26c>
    2872:	18 f4       	brcc	.+6      	; 0x287a <vfprintf+0x244>
    2874:	88 35       	cpi	r24, 0x58	; 88
    2876:	79 f0       	breq	.+30     	; 0x2896 <vfprintf+0x260>
    2878:	b5 c0       	rjmp	.+362    	; 0x29e4 <vfprintf+0x3ae>
    287a:	80 37       	cpi	r24, 0x70	; 112
    287c:	19 f0       	breq	.+6      	; 0x2884 <vfprintf+0x24e>
    287e:	88 37       	cpi	r24, 0x78	; 120
    2880:	21 f0       	breq	.+8      	; 0x288a <vfprintf+0x254>
    2882:	b0 c0       	rjmp	.+352    	; 0x29e4 <vfprintf+0x3ae>
    2884:	e9 2f       	mov	r30, r25
    2886:	e0 61       	ori	r30, 0x10	; 16
    2888:	be 2e       	mov	r11, r30
    288a:	b4 fe       	sbrs	r11, 4
    288c:	0d c0       	rjmp	.+26     	; 0x28a8 <vfprintf+0x272>
    288e:	fb 2d       	mov	r31, r11
    2890:	f4 60       	ori	r31, 0x04	; 4
    2892:	bf 2e       	mov	r11, r31
    2894:	09 c0       	rjmp	.+18     	; 0x28a8 <vfprintf+0x272>
    2896:	34 fe       	sbrs	r3, 4
    2898:	0a c0       	rjmp	.+20     	; 0x28ae <vfprintf+0x278>
    289a:	29 2f       	mov	r18, r25
    289c:	26 60       	ori	r18, 0x06	; 6
    289e:	b2 2e       	mov	r11, r18
    28a0:	06 c0       	rjmp	.+12     	; 0x28ae <vfprintf+0x278>
    28a2:	28 e0       	ldi	r18, 0x08	; 8
    28a4:	30 e0       	ldi	r19, 0x00	; 0
    28a6:	05 c0       	rjmp	.+10     	; 0x28b2 <vfprintf+0x27c>
    28a8:	20 e1       	ldi	r18, 0x10	; 16
    28aa:	30 e0       	ldi	r19, 0x00	; 0
    28ac:	02 c0       	rjmp	.+4      	; 0x28b2 <vfprintf+0x27c>
    28ae:	20 e1       	ldi	r18, 0x10	; 16
    28b0:	32 e0       	ldi	r19, 0x02	; 2
    28b2:	f8 01       	movw	r30, r16
    28b4:	b7 fe       	sbrs	r11, 7
    28b6:	07 c0       	rjmp	.+14     	; 0x28c6 <vfprintf+0x290>
    28b8:	60 81       	ld	r22, Z
    28ba:	71 81       	ldd	r23, Z+1	; 0x01
    28bc:	82 81       	ldd	r24, Z+2	; 0x02
    28be:	93 81       	ldd	r25, Z+3	; 0x03
    28c0:	0c 5f       	subi	r16, 0xFC	; 252
    28c2:	1f 4f       	sbci	r17, 0xFF	; 255
    28c4:	06 c0       	rjmp	.+12     	; 0x28d2 <vfprintf+0x29c>
    28c6:	60 81       	ld	r22, Z
    28c8:	71 81       	ldd	r23, Z+1	; 0x01
    28ca:	80 e0       	ldi	r24, 0x00	; 0
    28cc:	90 e0       	ldi	r25, 0x00	; 0
    28ce:	0e 5f       	subi	r16, 0xFE	; 254
    28d0:	1f 4f       	sbci	r17, 0xFF	; 255
    28d2:	a3 01       	movw	r20, r6
    28d4:	0e 94 12 15 	call	0x2a24	; 0x2a24 <__ultoa_invert>
    28d8:	88 2e       	mov	r8, r24
    28da:	86 18       	sub	r8, r6
    28dc:	fb 2d       	mov	r31, r11
    28de:	ff 77       	andi	r31, 0x7F	; 127
    28e0:	3f 2e       	mov	r3, r31
    28e2:	36 fe       	sbrs	r3, 6
    28e4:	0d c0       	rjmp	.+26     	; 0x2900 <vfprintf+0x2ca>
    28e6:	23 2d       	mov	r18, r3
    28e8:	2e 7f       	andi	r18, 0xFE	; 254
    28ea:	a2 2e       	mov	r10, r18
    28ec:	89 14       	cp	r8, r9
    28ee:	58 f4       	brcc	.+22     	; 0x2906 <vfprintf+0x2d0>
    28f0:	34 fe       	sbrs	r3, 4
    28f2:	0b c0       	rjmp	.+22     	; 0x290a <vfprintf+0x2d4>
    28f4:	32 fc       	sbrc	r3, 2
    28f6:	09 c0       	rjmp	.+18     	; 0x290a <vfprintf+0x2d4>
    28f8:	83 2d       	mov	r24, r3
    28fa:	8e 7e       	andi	r24, 0xEE	; 238
    28fc:	a8 2e       	mov	r10, r24
    28fe:	05 c0       	rjmp	.+10     	; 0x290a <vfprintf+0x2d4>
    2900:	b8 2c       	mov	r11, r8
    2902:	a3 2c       	mov	r10, r3
    2904:	03 c0       	rjmp	.+6      	; 0x290c <vfprintf+0x2d6>
    2906:	b8 2c       	mov	r11, r8
    2908:	01 c0       	rjmp	.+2      	; 0x290c <vfprintf+0x2d6>
    290a:	b9 2c       	mov	r11, r9
    290c:	a4 fe       	sbrs	r10, 4
    290e:	0f c0       	rjmp	.+30     	; 0x292e <vfprintf+0x2f8>
    2910:	fe 01       	movw	r30, r28
    2912:	e8 0d       	add	r30, r8
    2914:	f1 1d       	adc	r31, r1
    2916:	80 81       	ld	r24, Z
    2918:	80 33       	cpi	r24, 0x30	; 48
    291a:	21 f4       	brne	.+8      	; 0x2924 <vfprintf+0x2ee>
    291c:	9a 2d       	mov	r25, r10
    291e:	99 7e       	andi	r25, 0xE9	; 233
    2920:	a9 2e       	mov	r10, r25
    2922:	09 c0       	rjmp	.+18     	; 0x2936 <vfprintf+0x300>
    2924:	a2 fe       	sbrs	r10, 2
    2926:	06 c0       	rjmp	.+12     	; 0x2934 <vfprintf+0x2fe>
    2928:	b3 94       	inc	r11
    292a:	b3 94       	inc	r11
    292c:	04 c0       	rjmp	.+8      	; 0x2936 <vfprintf+0x300>
    292e:	8a 2d       	mov	r24, r10
    2930:	86 78       	andi	r24, 0x86	; 134
    2932:	09 f0       	breq	.+2      	; 0x2936 <vfprintf+0x300>
    2934:	b3 94       	inc	r11
    2936:	a3 fc       	sbrc	r10, 3
    2938:	11 c0       	rjmp	.+34     	; 0x295c <vfprintf+0x326>
    293a:	a0 fe       	sbrs	r10, 0
    293c:	06 c0       	rjmp	.+12     	; 0x294a <vfprintf+0x314>
    293e:	b2 14       	cp	r11, r2
    2940:	88 f4       	brcc	.+34     	; 0x2964 <vfprintf+0x32e>
    2942:	28 0c       	add	r2, r8
    2944:	92 2c       	mov	r9, r2
    2946:	9b 18       	sub	r9, r11
    2948:	0e c0       	rjmp	.+28     	; 0x2966 <vfprintf+0x330>
    294a:	b2 14       	cp	r11, r2
    294c:	60 f4       	brcc	.+24     	; 0x2966 <vfprintf+0x330>
    294e:	b6 01       	movw	r22, r12
    2950:	80 e2       	ldi	r24, 0x20	; 32
    2952:	90 e0       	ldi	r25, 0x00	; 0
    2954:	0e 94 93 12 	call	0x2526	; 0x2526 <fputc>
    2958:	b3 94       	inc	r11
    295a:	f7 cf       	rjmp	.-18     	; 0x294a <vfprintf+0x314>
    295c:	b2 14       	cp	r11, r2
    295e:	18 f4       	brcc	.+6      	; 0x2966 <vfprintf+0x330>
    2960:	2b 18       	sub	r2, r11
    2962:	02 c0       	rjmp	.+4      	; 0x2968 <vfprintf+0x332>
    2964:	98 2c       	mov	r9, r8
    2966:	21 2c       	mov	r2, r1
    2968:	a4 fe       	sbrs	r10, 4
    296a:	10 c0       	rjmp	.+32     	; 0x298c <vfprintf+0x356>
    296c:	b6 01       	movw	r22, r12
    296e:	80 e3       	ldi	r24, 0x30	; 48
    2970:	90 e0       	ldi	r25, 0x00	; 0
    2972:	0e 94 93 12 	call	0x2526	; 0x2526 <fputc>
    2976:	a2 fe       	sbrs	r10, 2
    2978:	17 c0       	rjmp	.+46     	; 0x29a8 <vfprintf+0x372>
    297a:	a1 fc       	sbrc	r10, 1
    297c:	03 c0       	rjmp	.+6      	; 0x2984 <vfprintf+0x34e>
    297e:	88 e7       	ldi	r24, 0x78	; 120
    2980:	90 e0       	ldi	r25, 0x00	; 0
    2982:	02 c0       	rjmp	.+4      	; 0x2988 <vfprintf+0x352>
    2984:	88 e5       	ldi	r24, 0x58	; 88
    2986:	90 e0       	ldi	r25, 0x00	; 0
    2988:	b6 01       	movw	r22, r12
    298a:	0c c0       	rjmp	.+24     	; 0x29a4 <vfprintf+0x36e>
    298c:	8a 2d       	mov	r24, r10
    298e:	86 78       	andi	r24, 0x86	; 134
    2990:	59 f0       	breq	.+22     	; 0x29a8 <vfprintf+0x372>
    2992:	a1 fe       	sbrs	r10, 1
    2994:	02 c0       	rjmp	.+4      	; 0x299a <vfprintf+0x364>
    2996:	8b e2       	ldi	r24, 0x2B	; 43
    2998:	01 c0       	rjmp	.+2      	; 0x299c <vfprintf+0x366>
    299a:	80 e2       	ldi	r24, 0x20	; 32
    299c:	a7 fc       	sbrc	r10, 7
    299e:	8d e2       	ldi	r24, 0x2D	; 45
    29a0:	b6 01       	movw	r22, r12
    29a2:	90 e0       	ldi	r25, 0x00	; 0
    29a4:	0e 94 93 12 	call	0x2526	; 0x2526 <fputc>
    29a8:	89 14       	cp	r8, r9
    29aa:	38 f4       	brcc	.+14     	; 0x29ba <vfprintf+0x384>
    29ac:	b6 01       	movw	r22, r12
    29ae:	80 e3       	ldi	r24, 0x30	; 48
    29b0:	90 e0       	ldi	r25, 0x00	; 0
    29b2:	0e 94 93 12 	call	0x2526	; 0x2526 <fputc>
    29b6:	9a 94       	dec	r9
    29b8:	f7 cf       	rjmp	.-18     	; 0x29a8 <vfprintf+0x372>
    29ba:	8a 94       	dec	r8
    29bc:	f3 01       	movw	r30, r6
    29be:	e8 0d       	add	r30, r8
    29c0:	f1 1d       	adc	r31, r1
    29c2:	80 81       	ld	r24, Z
    29c4:	b6 01       	movw	r22, r12
    29c6:	90 e0       	ldi	r25, 0x00	; 0
    29c8:	0e 94 93 12 	call	0x2526	; 0x2526 <fputc>
    29cc:	81 10       	cpse	r8, r1
    29ce:	f5 cf       	rjmp	.-22     	; 0x29ba <vfprintf+0x384>
    29d0:	22 20       	and	r2, r2
    29d2:	09 f4       	brne	.+2      	; 0x29d6 <vfprintf+0x3a0>
    29d4:	42 ce       	rjmp	.-892    	; 0x265a <vfprintf+0x24>
    29d6:	b6 01       	movw	r22, r12
    29d8:	80 e2       	ldi	r24, 0x20	; 32
    29da:	90 e0       	ldi	r25, 0x00	; 0
    29dc:	0e 94 93 12 	call	0x2526	; 0x2526 <fputc>
    29e0:	2a 94       	dec	r2
    29e2:	f6 cf       	rjmp	.-20     	; 0x29d0 <vfprintf+0x39a>
    29e4:	f6 01       	movw	r30, r12
    29e6:	86 81       	ldd	r24, Z+6	; 0x06
    29e8:	97 81       	ldd	r25, Z+7	; 0x07
    29ea:	02 c0       	rjmp	.+4      	; 0x29f0 <vfprintf+0x3ba>
    29ec:	8f ef       	ldi	r24, 0xFF	; 255
    29ee:	9f ef       	ldi	r25, 0xFF	; 255
    29f0:	2b 96       	adiw	r28, 0x0b	; 11
    29f2:	e2 e1       	ldi	r30, 0x12	; 18
    29f4:	0c 94 a6 15 	jmp	0x2b4c	; 0x2b4c <__epilogue_restores__>

000029f8 <strnlen_P>:
    29f8:	fc 01       	movw	r30, r24
    29fa:	05 90       	lpm	r0, Z+
    29fc:	61 50       	subi	r22, 0x01	; 1
    29fe:	70 40       	sbci	r23, 0x00	; 0
    2a00:	01 10       	cpse	r0, r1
    2a02:	d8 f7       	brcc	.-10     	; 0x29fa <strnlen_P+0x2>
    2a04:	80 95       	com	r24
    2a06:	90 95       	com	r25
    2a08:	8e 0f       	add	r24, r30
    2a0a:	9f 1f       	adc	r25, r31
    2a0c:	08 95       	ret

00002a0e <strnlen>:
    2a0e:	fc 01       	movw	r30, r24
    2a10:	61 50       	subi	r22, 0x01	; 1
    2a12:	70 40       	sbci	r23, 0x00	; 0
    2a14:	01 90       	ld	r0, Z+
    2a16:	01 10       	cpse	r0, r1
    2a18:	d8 f7       	brcc	.-10     	; 0x2a10 <strnlen+0x2>
    2a1a:	80 95       	com	r24
    2a1c:	90 95       	com	r25
    2a1e:	8e 0f       	add	r24, r30
    2a20:	9f 1f       	adc	r25, r31
    2a22:	08 95       	ret

00002a24 <__ultoa_invert>:
    2a24:	fa 01       	movw	r30, r20
    2a26:	aa 27       	eor	r26, r26
    2a28:	28 30       	cpi	r18, 0x08	; 8
    2a2a:	51 f1       	breq	.+84     	; 0x2a80 <__ultoa_invert+0x5c>
    2a2c:	20 31       	cpi	r18, 0x10	; 16
    2a2e:	81 f1       	breq	.+96     	; 0x2a90 <__ultoa_invert+0x6c>
    2a30:	e8 94       	clt
    2a32:	6f 93       	push	r22
    2a34:	6e 7f       	andi	r22, 0xFE	; 254
    2a36:	6e 5f       	subi	r22, 0xFE	; 254
    2a38:	7f 4f       	sbci	r23, 0xFF	; 255
    2a3a:	8f 4f       	sbci	r24, 0xFF	; 255
    2a3c:	9f 4f       	sbci	r25, 0xFF	; 255
    2a3e:	af 4f       	sbci	r26, 0xFF	; 255
    2a40:	b1 e0       	ldi	r27, 0x01	; 1
    2a42:	3e d0       	rcall	.+124    	; 0x2ac0 <__ultoa_invert+0x9c>
    2a44:	b4 e0       	ldi	r27, 0x04	; 4
    2a46:	3c d0       	rcall	.+120    	; 0x2ac0 <__ultoa_invert+0x9c>
    2a48:	67 0f       	add	r22, r23
    2a4a:	78 1f       	adc	r23, r24
    2a4c:	89 1f       	adc	r24, r25
    2a4e:	9a 1f       	adc	r25, r26
    2a50:	a1 1d       	adc	r26, r1
    2a52:	68 0f       	add	r22, r24
    2a54:	79 1f       	adc	r23, r25
    2a56:	8a 1f       	adc	r24, r26
    2a58:	91 1d       	adc	r25, r1
    2a5a:	a1 1d       	adc	r26, r1
    2a5c:	6a 0f       	add	r22, r26
    2a5e:	71 1d       	adc	r23, r1
    2a60:	81 1d       	adc	r24, r1
    2a62:	91 1d       	adc	r25, r1
    2a64:	a1 1d       	adc	r26, r1
    2a66:	20 d0       	rcall	.+64     	; 0x2aa8 <__ultoa_invert+0x84>
    2a68:	09 f4       	brne	.+2      	; 0x2a6c <__ultoa_invert+0x48>
    2a6a:	68 94       	set
    2a6c:	3f 91       	pop	r19
    2a6e:	2a e0       	ldi	r18, 0x0A	; 10
    2a70:	26 9f       	mul	r18, r22
    2a72:	11 24       	eor	r1, r1
    2a74:	30 19       	sub	r19, r0
    2a76:	30 5d       	subi	r19, 0xD0	; 208
    2a78:	31 93       	st	Z+, r19
    2a7a:	de f6       	brtc	.-74     	; 0x2a32 <__ultoa_invert+0xe>
    2a7c:	cf 01       	movw	r24, r30
    2a7e:	08 95       	ret
    2a80:	46 2f       	mov	r20, r22
    2a82:	47 70       	andi	r20, 0x07	; 7
    2a84:	40 5d       	subi	r20, 0xD0	; 208
    2a86:	41 93       	st	Z+, r20
    2a88:	b3 e0       	ldi	r27, 0x03	; 3
    2a8a:	0f d0       	rcall	.+30     	; 0x2aaa <__ultoa_invert+0x86>
    2a8c:	c9 f7       	brne	.-14     	; 0x2a80 <__ultoa_invert+0x5c>
    2a8e:	f6 cf       	rjmp	.-20     	; 0x2a7c <__ultoa_invert+0x58>
    2a90:	46 2f       	mov	r20, r22
    2a92:	4f 70       	andi	r20, 0x0F	; 15
    2a94:	40 5d       	subi	r20, 0xD0	; 208
    2a96:	4a 33       	cpi	r20, 0x3A	; 58
    2a98:	18 f0       	brcs	.+6      	; 0x2aa0 <__ultoa_invert+0x7c>
    2a9a:	49 5d       	subi	r20, 0xD9	; 217
    2a9c:	31 fd       	sbrc	r19, 1
    2a9e:	40 52       	subi	r20, 0x20	; 32
    2aa0:	41 93       	st	Z+, r20
    2aa2:	02 d0       	rcall	.+4      	; 0x2aa8 <__ultoa_invert+0x84>
    2aa4:	a9 f7       	brne	.-22     	; 0x2a90 <__ultoa_invert+0x6c>
    2aa6:	ea cf       	rjmp	.-44     	; 0x2a7c <__ultoa_invert+0x58>
    2aa8:	b4 e0       	ldi	r27, 0x04	; 4
    2aaa:	a6 95       	lsr	r26
    2aac:	97 95       	ror	r25
    2aae:	87 95       	ror	r24
    2ab0:	77 95       	ror	r23
    2ab2:	67 95       	ror	r22
    2ab4:	ba 95       	dec	r27
    2ab6:	c9 f7       	brne	.-14     	; 0x2aaa <__ultoa_invert+0x86>
    2ab8:	00 97       	sbiw	r24, 0x00	; 0
    2aba:	61 05       	cpc	r22, r1
    2abc:	71 05       	cpc	r23, r1
    2abe:	08 95       	ret
    2ac0:	9b 01       	movw	r18, r22
    2ac2:	ac 01       	movw	r20, r24
    2ac4:	0a 2e       	mov	r0, r26
    2ac6:	06 94       	lsr	r0
    2ac8:	57 95       	ror	r21
    2aca:	47 95       	ror	r20
    2acc:	37 95       	ror	r19
    2ace:	27 95       	ror	r18
    2ad0:	ba 95       	dec	r27
    2ad2:	c9 f7       	brne	.-14     	; 0x2ac6 <__ultoa_invert+0xa2>
    2ad4:	62 0f       	add	r22, r18
    2ad6:	73 1f       	adc	r23, r19
    2ad8:	84 1f       	adc	r24, r20
    2ada:	95 1f       	adc	r25, r21
    2adc:	a0 1d       	adc	r26, r0
    2ade:	08 95       	ret

00002ae0 <eeprom_read_byte>:
    2ae0:	f9 99       	sbic	0x1f, 1	; 31
    2ae2:	fe cf       	rjmp	.-4      	; 0x2ae0 <eeprom_read_byte>
    2ae4:	92 bd       	out	0x22, r25	; 34
    2ae6:	81 bd       	out	0x21, r24	; 33
    2ae8:	f8 9a       	sbi	0x1f, 0	; 31
    2aea:	99 27       	eor	r25, r25
    2aec:	80 b5       	in	r24, 0x20	; 32
    2aee:	08 95       	ret

00002af0 <eeprom_update_byte>:
    2af0:	26 2f       	mov	r18, r22

00002af2 <eeprom_update_r18>:
    2af2:	f9 99       	sbic	0x1f, 1	; 31
    2af4:	fe cf       	rjmp	.-4      	; 0x2af2 <eeprom_update_r18>
    2af6:	92 bd       	out	0x22, r25	; 34
    2af8:	81 bd       	out	0x21, r24	; 33
    2afa:	f8 9a       	sbi	0x1f, 0	; 31
    2afc:	01 97       	sbiw	r24, 0x01	; 1
    2afe:	00 b4       	in	r0, 0x20	; 32
    2b00:	02 16       	cp	r0, r18
    2b02:	39 f0       	breq	.+14     	; 0x2b12 <eeprom_update_r18+0x20>
    2b04:	1f ba       	out	0x1f, r1	; 31
    2b06:	20 bd       	out	0x20, r18	; 32
    2b08:	0f b6       	in	r0, 0x3f	; 63
    2b0a:	f8 94       	cli
    2b0c:	fa 9a       	sbi	0x1f, 2	; 31
    2b0e:	f9 9a       	sbi	0x1f, 1	; 31
    2b10:	0f be       	out	0x3f, r0	; 63
    2b12:	08 95       	ret

00002b14 <__prologue_saves__>:
    2b14:	2f 92       	push	r2
    2b16:	3f 92       	push	r3
    2b18:	4f 92       	push	r4
    2b1a:	5f 92       	push	r5
    2b1c:	6f 92       	push	r6
    2b1e:	7f 92       	push	r7
    2b20:	8f 92       	push	r8
    2b22:	9f 92       	push	r9
    2b24:	af 92       	push	r10
    2b26:	bf 92       	push	r11
    2b28:	cf 92       	push	r12
    2b2a:	df 92       	push	r13
    2b2c:	ef 92       	push	r14
    2b2e:	ff 92       	push	r15
    2b30:	0f 93       	push	r16
    2b32:	1f 93       	push	r17
    2b34:	cf 93       	push	r28
    2b36:	df 93       	push	r29
    2b38:	cd b7       	in	r28, 0x3d	; 61
    2b3a:	de b7       	in	r29, 0x3e	; 62
    2b3c:	ca 1b       	sub	r28, r26
    2b3e:	db 0b       	sbc	r29, r27
    2b40:	0f b6       	in	r0, 0x3f	; 63
    2b42:	f8 94       	cli
    2b44:	de bf       	out	0x3e, r29	; 62
    2b46:	0f be       	out	0x3f, r0	; 63
    2b48:	cd bf       	out	0x3d, r28	; 61
    2b4a:	09 94       	ijmp

00002b4c <__epilogue_restores__>:
    2b4c:	2a 88       	ldd	r2, Y+18	; 0x12
    2b4e:	39 88       	ldd	r3, Y+17	; 0x11
    2b50:	48 88       	ldd	r4, Y+16	; 0x10
    2b52:	5f 84       	ldd	r5, Y+15	; 0x0f
    2b54:	6e 84       	ldd	r6, Y+14	; 0x0e
    2b56:	7d 84       	ldd	r7, Y+13	; 0x0d
    2b58:	8c 84       	ldd	r8, Y+12	; 0x0c
    2b5a:	9b 84       	ldd	r9, Y+11	; 0x0b
    2b5c:	aa 84       	ldd	r10, Y+10	; 0x0a
    2b5e:	b9 84       	ldd	r11, Y+9	; 0x09
    2b60:	c8 84       	ldd	r12, Y+8	; 0x08
    2b62:	df 80       	ldd	r13, Y+7	; 0x07
    2b64:	ee 80       	ldd	r14, Y+6	; 0x06
    2b66:	fd 80       	ldd	r15, Y+5	; 0x05
    2b68:	0c 81       	ldd	r16, Y+4	; 0x04
    2b6a:	1b 81       	ldd	r17, Y+3	; 0x03
    2b6c:	aa 81       	ldd	r26, Y+2	; 0x02
    2b6e:	b9 81       	ldd	r27, Y+1	; 0x01
    2b70:	ce 0f       	add	r28, r30
    2b72:	d1 1d       	adc	r29, r1
    2b74:	0f b6       	in	r0, 0x3f	; 63
    2b76:	f8 94       	cli
    2b78:	de bf       	out	0x3e, r29	; 62
    2b7a:	0f be       	out	0x3f, r0	; 63
    2b7c:	cd bf       	out	0x3d, r28	; 61
    2b7e:	ed 01       	movw	r28, r26
    2b80:	08 95       	ret

00002b82 <_exit>:
    2b82:	f8 94       	cli

00002b84 <__stop_program>:
    2b84:	ff cf       	rjmp	.-2      	; 0x2b84 <__stop_program>
